
game:     file format elf32-i386


Disassembly of section .text:

00800000 <sulp>:
  800000:	55                   	push   %ebp
  800001:	89 e5                	mov    %esp,%ebp
  800003:	53                   	push   %ebx
  800004:	89 cb                	mov    %ecx,%ebx
  800006:	83 ec 14             	sub    $0x14,%esp
  800009:	89 45 f0             	mov    %eax,-0x10(%ebp)
  80000c:	89 55 f4             	mov    %edx,-0xc(%ebp)
  80000f:	dd 45 f0             	fldl   -0x10(%ebp)
  800012:	dd 1c 24             	fstpl  (%esp)
  800015:	e8 16 ad 03 00       	call   83ad30 <__ulp>
  80001a:	85 db                	test   %ebx,%ebx
  80001c:	74 2c                	je     80004a <sulp+0x4a>
  80001e:	8b 55 f4             	mov    -0xc(%ebp),%edx
  800021:	b8 6b 00 00 00       	mov    $0x6b,%eax
  800026:	81 e2 00 00 f0 7f    	and    $0x7ff00000,%edx
  80002c:	c1 ea 14             	shr    $0x14,%edx
  80002f:	29 d0                	sub    %edx,%eax
  800031:	85 c0                	test   %eax,%eax
  800033:	7e 15                	jle    80004a <sulp+0x4a>
  800035:	c1 e0 14             	shl    $0x14,%eax
  800038:	05 00 00 f0 3f       	add    $0x3ff00000,%eax
  80003d:	89 45 f4             	mov    %eax,-0xc(%ebp)
  800040:	c7 45 f0 00 00 00 00 	movl   $0x0,-0x10(%ebp)
  800047:	dc 4d f0             	fmull  -0x10(%ebp)
  80004a:	83 c4 14             	add    $0x14,%esp
  80004d:	5b                   	pop    %ebx
  80004e:	5d                   	pop    %ebp
  80004f:	c3                   	ret    

00800050 <cli>:
  800050:	55                   	push   %ebp
  800051:	89 e5                	mov    %esp,%ebp
  800053:	e8 d2 00 00 00       	call   80012a <__x86.get_pc_thunk.ax>
  800058:	05 a8 af 04 00       	add    $0x4afa8,%eax
  80005d:	fa                   	cli    
  80005e:	90                   	nop
  80005f:	5d                   	pop    %ebp
  800060:	c3                   	ret    

00800061 <add_irq_handle>:
  800061:	55                   	push   %ebp
  800062:	89 e5                	mov    %esp,%ebp
  800064:	53                   	push   %ebx
  800065:	83 ec 04             	sub    $0x4,%esp
  800068:	e8 bd 00 00 00       	call   80012a <__x86.get_pc_thunk.ax>
  80006d:	05 93 af 04 00       	add    $0x4af93,%eax
  800072:	83 ec 04             	sub    $0x4,%esp
  800075:	ff 75 0c             	pushl  0xc(%ebp)
  800078:	ff 75 08             	pushl  0x8(%ebp)
  80007b:	6a 00                	push   $0x0
  80007d:	89 c3                	mov    %eax,%ebx
  80007f:	e8 ae 00 00 00       	call   800132 <syscall>
  800084:	83 c4 10             	add    $0x10,%esp
  800087:	90                   	nop
  800088:	8b 5d fc             	mov    -0x4(%ebp),%ebx
  80008b:	c9                   	leave  
  80008c:	c3                   	ret    

0080008d <game_init>:
  80008d:	55                   	push   %ebp
  80008e:	89 e5                	mov    %esp,%ebp
  800090:	53                   	push   %ebx
  800091:	83 ec 04             	sub    $0x4,%esp
  800094:	e8 95 00 00 00       	call   80012e <__x86.get_pc_thunk.bx>
  800099:	81 c3 67 af 04 00    	add    $0x4af67,%ebx
  80009f:	e8 45 06 00 00       	call   8006e9 <init_timer>
  8000a4:	83 ec 08             	sub    $0x8,%esp
  8000a7:	c7 c0 0c 12 80 00    	mov    $0x80120c,%eax
  8000ad:	50                   	push   %eax
  8000ae:	6a 00                	push   $0x0
  8000b0:	e8 ac ff ff ff       	call   800061 <add_irq_handle>
  8000b5:	83 c4 10             	add    $0x10,%esp
  8000b8:	83 ec 08             	sub    $0x8,%esp
  8000bb:	c7 c0 06 13 80 00    	mov    $0x801306,%eax
  8000c1:	50                   	push   %eax
  8000c2:	6a 01                	push   $0x1
  8000c4:	e8 98 ff ff ff       	call   800061 <add_irq_handle>
  8000c9:	83 c4 10             	add    $0x10,%esp
  8000cc:	8d 83 c8 63 ff ff    	lea    -0x9c38(%ebx),%eax
  8000d2:	50                   	push   %eax
  8000d3:	6a 12                	push   $0x12
  8000d5:	8d 83 40 63 ff ff    	lea    -0x9cc0(%ebx),%eax
  8000db:	50                   	push   %eax
  8000dc:	8d 83 54 63 ff ff    	lea    -0x9cac(%ebx),%eax
  8000e2:	50                   	push   %eax
  8000e3:	e8 28 22 03 00       	call   832310 <printf>
  8000e8:	83 c4 10             	add    $0x10,%esp
  8000eb:	e8 bc 44 01 00       	call   8145ac <main_loop>
  8000f0:	e8 5b ff ff ff       	call   800050 <cli>
  8000f5:	83 ec 0c             	sub    $0xc,%esp
  8000f8:	8d 83 7e 63 ff ff    	lea    -0x9c82(%ebx),%eax
  8000fe:	50                   	push   %eax
  8000ff:	8d 83 c8 63 ff ff    	lea    -0x9c38(%ebx),%eax
  800105:	50                   	push   %eax
  800106:	6a 16                	push   $0x16
  800108:	8d 83 40 63 ff ff    	lea    -0x9cc0(%ebx),%eax
  80010e:	50                   	push   %eax
  80010f:	8d 83 80 63 ff ff    	lea    -0x9c80(%ebx),%eax
  800115:	50                   	push   %eax
  800116:	e8 f5 21 03 00       	call   832310 <printf>
  80011b:	83 c4 20             	add    $0x20,%esp
  80011e:	b8 01 00 00 00       	mov    $0x1,%eax
  800123:	82 90 8b 5d fc c9 c3 	adcb   $0xc3,-0x3603a275(%eax)

0080012a <__x86.get_pc_thunk.ax>:
  80012a:	8b 04 24             	mov    (%esp),%eax
  80012d:	c3                   	ret    

0080012e <__x86.get_pc_thunk.bx>:
  80012e:	8b 1c 24             	mov    (%esp),%ebx
  800131:	c3                   	ret    

00800132 <syscall>:
  800132:	55                   	push   %ebp
  800133:	89 e5                	mov    %esp,%ebp
  800135:	53                   	push   %ebx
  800136:	83 ec 10             	sub    $0x10,%esp
  800139:	e8 ec ff ff ff       	call   80012a <__x86.get_pc_thunk.ax>
  80013e:	05 c2 ae 04 00       	add    $0x4aec2,%eax
  800143:	8d 45 08             	lea    0x8(%ebp),%eax
  800146:	89 45 f8             	mov    %eax,-0x8(%ebp)
  800149:	8b 45 f8             	mov    -0x8(%ebp),%eax
  80014c:	8b 00                	mov    (%eax),%eax
  80014e:	8b 55 f8             	mov    -0x8(%ebp),%edx
  800151:	83 c2 04             	add    $0x4,%edx
  800154:	8b 1a                	mov    (%edx),%ebx
  800156:	8b 55 f8             	mov    -0x8(%ebp),%edx
  800159:	83 c2 08             	add    $0x8,%edx
  80015c:	8b 0a                	mov    (%edx),%ecx
  80015e:	8b 55 f8             	mov    -0x8(%ebp),%edx
  800161:	83 c2 0c             	add    $0xc,%edx
  800164:	8b 12                	mov    (%edx),%edx
  800166:	cd 80                	int    $0x80
  800168:	89 45 f4             	mov    %eax,-0xc(%ebp)
  80016b:	8b 45 f4             	mov    -0xc(%ebp),%eax
  80016e:	83 c4 10             	add    $0x10,%esp
  800171:	5b                   	pop    %ebx
  800172:	5d                   	pop    %ebp
  800173:	c3                   	ret    

00800174 <_exit>:
  800174:	55                   	push   %ebp
  800175:	89 e5                	mov    %esp,%ebp
  800177:	53                   	push   %ebx
  800178:	83 ec 04             	sub    $0x4,%esp
  80017b:	e8 aa ff ff ff       	call   80012a <__x86.get_pc_thunk.ax>
  800180:	05 80 ae 04 00       	add    $0x4ae80,%eax
  800185:	8d 90 18 64 ff ff    	lea    -0x9be8(%eax),%edx
  80018b:	52                   	push   %edx
  80018c:	6a 0e                	push   $0xe
  80018e:	8d 90 d4 63 ff ff    	lea    -0x9c2c(%eax),%edx
  800194:	52                   	push   %edx
  800195:	8d 90 f0 63 ff ff    	lea    -0x9c10(%eax),%edx
  80019b:	52                   	push   %edx
  80019c:	89 c3                	mov    %eax,%ebx
  80019e:	e8 6d 21 03 00       	call   832310 <printf>
  8001a3:	83 c4 10             	add    $0x10,%esp
  8001a6:	83 7d 08 00          	cmpl   $0x0,0x8(%ebp)
  8001aa:	74 06                	je     8001b2 <_exit+0x3e>
  8001ac:	b8 01 00 00 00       	mov    $0x1,%eax
  8001b1:	82 90 8b 5d fc c9 c3 	adcb   $0xc3,-0x3603a275(%eax)

008001b8 <open>:
  8001b8:	55                   	push   %ebp
  8001b9:	89 e5                	mov    %esp,%ebp
  8001bb:	e8 6a ff ff ff       	call   80012a <__x86.get_pc_thunk.ax>
  8001c0:	05 40 ae 04 00       	add    $0x4ae40,%eax
  8001c5:	ff 75 0c             	pushl  0xc(%ebp)
  8001c8:	ff 75 08             	pushl  0x8(%ebp)
  8001cb:	6a 05                	push   $0x5
  8001cd:	e8 60 ff ff ff       	call   800132 <syscall>
  8001d2:	83 c4 0c             	add    $0xc,%esp
  8001d5:	c9                   	leave  
  8001d6:	c3                   	ret    

008001d7 <read>:
  8001d7:	55                   	push   %ebp
  8001d8:	89 e5                	mov    %esp,%ebp
  8001da:	e8 4b ff ff ff       	call   80012a <__x86.get_pc_thunk.ax>
  8001df:	05 21 ae 04 00       	add    $0x4ae21,%eax
  8001e4:	ff 75 10             	pushl  0x10(%ebp)
  8001e7:	ff 75 0c             	pushl  0xc(%ebp)
  8001ea:	ff 75 08             	pushl  0x8(%ebp)
  8001ed:	6a 03                	push   $0x3
  8001ef:	e8 3e ff ff ff       	call   800132 <syscall>
  8001f4:	83 c4 10             	add    $0x10,%esp
  8001f7:	c9                   	leave  
  8001f8:	c3                   	ret    

008001f9 <write>:
  8001f9:	55                   	push   %ebp
  8001fa:	89 e5                	mov    %esp,%ebp
  8001fc:	e8 29 ff ff ff       	call   80012a <__x86.get_pc_thunk.ax>
  800201:	05 ff ad 04 00       	add    $0x4adff,%eax
  800206:	ff 75 10             	pushl  0x10(%ebp)
  800209:	ff 75 0c             	pushl  0xc(%ebp)
  80020c:	ff 75 08             	pushl  0x8(%ebp)
  80020f:	6a 04                	push   $0x4
  800211:	e8 1c ff ff ff       	call   800132 <syscall>
  800216:	83 c4 10             	add    $0x10,%esp
  800219:	c9                   	leave  
  80021a:	c3                   	ret    

0080021b <lseek>:
  80021b:	55                   	push   %ebp
  80021c:	89 e5                	mov    %esp,%ebp
  80021e:	e8 07 ff ff ff       	call   80012a <__x86.get_pc_thunk.ax>
  800223:	05 dd ad 04 00       	add    $0x4addd,%eax
  800228:	ff 75 10             	pushl  0x10(%ebp)
  80022b:	ff 75 0c             	pushl  0xc(%ebp)
  80022e:	ff 75 08             	pushl  0x8(%ebp)
  800231:	6a 13                	push   $0x13
  800233:	e8 fa fe ff ff       	call   800132 <syscall>
  800238:	83 c4 10             	add    $0x10,%esp
  80023b:	c9                   	leave  
  80023c:	c3                   	ret    

0080023d <sbrk>:
  80023d:	55                   	push   %ebp
  80023e:	89 e5                	mov    %esp,%ebp
  800240:	53                   	push   %ebx
  800241:	83 ec 10             	sub    $0x10,%esp
  800244:	e8 e5 fe ff ff       	call   80012e <__x86.get_pc_thunk.bx>
  800249:	81 c3 b7 ad 04 00    	add    $0x4adb7,%ebx
  80024f:	8b 83 c0 15 00 00    	mov    0x15c0(%ebx),%eax
  800255:	85 c0                	test   %eax,%eax
  800257:	75 0c                	jne    800265 <sbrk+0x28>
  800259:	c7 c0 48 3a 86 00    	mov    $0x863a48,%eax
  80025f:	89 83 c0 15 00 00    	mov    %eax,0x15c0(%ebx)
  800265:	8b 93 c0 15 00 00    	mov    0x15c0(%ebx),%edx
  80026b:	8b 45 08             	mov    0x8(%ebp),%eax
  80026e:	01 d0                	add    %edx,%eax
  800270:	50                   	push   %eax
  800271:	6a 2d                	push   $0x2d
  800273:	e8 ba fe ff ff       	call   800132 <syscall>
  800278:	83 c4 08             	add    $0x8,%esp
  80027b:	85 c0                	test   %eax,%eax
  80027d:	74 06                	je     800285 <sbrk+0x48>
  80027f:	b8 01 00 00 00       	mov    $0x1,%eax
  800284:	82 8b 83 c0 15 00 00 	orb    $0x0,0x15c083(%ebx)
  80028b:	89 45 f8             	mov    %eax,-0x8(%ebp)
  80028e:	8b 93 c0 15 00 00    	mov    0x15c0(%ebx),%edx
  800294:	8b 45 08             	mov    0x8(%ebp),%eax
  800297:	01 d0                	add    %edx,%eax
  800299:	89 83 c0 15 00 00    	mov    %eax,0x15c0(%ebx)
  80029f:	8b 45 f8             	mov    -0x8(%ebp),%eax
  8002a2:	8b 5d fc             	mov    -0x4(%ebp),%ebx
  8002a5:	c9                   	leave  
  8002a6:	c3                   	ret    

008002a7 <close>:
  8002a7:	55                   	push   %ebp
  8002a8:	89 e5                	mov    %esp,%ebp
  8002aa:	e8 7b fe ff ff       	call   80012a <__x86.get_pc_thunk.ax>
  8002af:	05 51 ad 04 00       	add    $0x4ad51,%eax
  8002b4:	ff 75 08             	pushl  0x8(%ebp)
  8002b7:	6a 06                	push   $0x6
  8002b9:	e8 74 fe ff ff       	call   800132 <syscall>
  8002be:	83 c4 08             	add    $0x8,%esp
  8002c1:	c9                   	leave  
  8002c2:	c3                   	ret    

008002c3 <fstat>:
  8002c3:	55                   	push   %ebp
  8002c4:	89 e5                	mov    %esp,%ebp
  8002c6:	e8 5f fe ff ff       	call   80012a <__x86.get_pc_thunk.ax>
  8002cb:	05 35 ad 04 00       	add    $0x4ad35,%eax
  8002d0:	8b 45 0c             	mov    0xc(%ebp),%eax
  8002d3:	c7 40 04 00 20 00 00 	movl   $0x2000,0x4(%eax)
  8002da:	b8 00 00 00 00       	mov    $0x0,%eax
  8002df:	5d                   	pop    %ebp
  8002e0:	c3                   	ret    

008002e1 <isatty>:
  8002e1:	55                   	push   %ebp
  8002e2:	89 e5                	mov    %esp,%ebp
  8002e4:	e8 41 fe ff ff       	call   80012a <__x86.get_pc_thunk.ax>
  8002e9:	05 17 ad 04 00       	add    $0x4ad17,%eax
  8002ee:	b8 00 00 00 00       	mov    $0x0,%eax
  8002f3:	5d                   	pop    %ebp
  8002f4:	c3                   	ret    

008002f5 <in_byte>:
  8002f5:	55                   	push   %ebp
  8002f6:	89 e5                	mov    %esp,%ebp
  8002f8:	83 ec 14             	sub    $0x14,%esp
  8002fb:	e8 2a fe ff ff       	call   80012a <__x86.get_pc_thunk.ax>
  800300:	05 00 ad 04 00       	add    $0x4ad00,%eax
  800305:	8b 45 08             	mov    0x8(%ebp),%eax
  800308:	66 89 45 ec          	mov    %ax,-0x14(%ebp)
  80030c:	0f b7 45 ec          	movzwl -0x14(%ebp),%eax
  800310:	89 c2                	mov    %eax,%edx
  800312:	ec                   	in     (%dx),%al
  800313:	88 45 ff             	mov    %al,-0x1(%ebp)
  800316:	0f b6 45 ff          	movzbl -0x1(%ebp),%eax
  80031a:	c9                   	leave  
  80031b:	c3                   	ret    

0080031c <out_byte>:
  80031c:	55                   	push   %ebp
  80031d:	89 e5                	mov    %esp,%ebp
  80031f:	83 ec 08             	sub    $0x8,%esp
  800322:	e8 03 fe ff ff       	call   80012a <__x86.get_pc_thunk.ax>
  800327:	05 d9 ac 04 00       	add    $0x4acd9,%eax
  80032c:	8b 55 08             	mov    0x8(%ebp),%edx
  80032f:	8b 45 0c             	mov    0xc(%ebp),%eax
  800332:	66 89 55 fc          	mov    %dx,-0x4(%ebp)
  800336:	88 45 f8             	mov    %al,-0x8(%ebp)
  800339:	0f b6 45 f8          	movzbl -0x8(%ebp),%eax
  80033d:	0f b7 55 fc          	movzwl -0x4(%ebp),%edx
  800341:	ee                   	out    %al,(%dx)
  800342:	90                   	nop
  800343:	c9                   	leave  
  800344:	c3                   	ret    

00800345 <write_palette>:
  800345:	55                   	push   %ebp
  800346:	89 e5                	mov    %esp,%ebp
  800348:	83 ec 10             	sub    $0x10,%esp
  80034b:	e8 da fd ff ff       	call   80012a <__x86.get_pc_thunk.ax>
  800350:	05 b0 ac 04 00       	add    $0x4acb0,%eax
  800355:	8b 45 08             	mov    0x8(%ebp),%eax
  800358:	89 45 f8             	mov    %eax,-0x8(%ebp)
  80035b:	6a 00                	push   $0x0
  80035d:	68 c8 03 00 00       	push   $0x3c8
  800362:	e8 b5 ff ff ff       	call   80031c <out_byte>
  800367:	83 c4 08             	add    $0x8,%esp
  80036a:	c7 45 fc 00 00 00 00 	movl   $0x0,-0x4(%ebp)
  800371:	eb 78                	jmp    8003eb <write_palette+0xa6>
  800373:	8b 45 fc             	mov    -0x4(%ebp),%eax
  800376:	8d 14 85 00 00 00 00 	lea    0x0(,%eax,4),%edx
  80037d:	8b 45 f8             	mov    -0x8(%ebp),%eax
  800380:	01 d0                	add    %edx,%eax
  800382:	0f b6 00             	movzbl (%eax),%eax
  800385:	c0 e8 02             	shr    $0x2,%al
  800388:	0f be c0             	movsbl %al,%eax
  80038b:	50                   	push   %eax
  80038c:	68 c9 03 00 00       	push   $0x3c9
  800391:	e8 86 ff ff ff       	call   80031c <out_byte>
  800396:	83 c4 08             	add    $0x8,%esp
  800399:	8b 45 fc             	mov    -0x4(%ebp),%eax
  80039c:	8d 14 85 00 00 00 00 	lea    0x0(,%eax,4),%edx
  8003a3:	8b 45 f8             	mov    -0x8(%ebp),%eax
  8003a6:	01 d0                	add    %edx,%eax
  8003a8:	0f b6 40 01          	movzbl 0x1(%eax),%eax
  8003ac:	c0 e8 02             	shr    $0x2,%al
  8003af:	0f be c0             	movsbl %al,%eax
  8003b2:	50                   	push   %eax
  8003b3:	68 c9 03 00 00       	push   $0x3c9
  8003b8:	e8 5f ff ff ff       	call   80031c <out_byte>
  8003bd:	83 c4 08             	add    $0x8,%esp
  8003c0:	8b 45 fc             	mov    -0x4(%ebp),%eax
  8003c3:	8d 14 85 00 00 00 00 	lea    0x0(,%eax,4),%edx
  8003ca:	8b 45 f8             	mov    -0x8(%ebp),%eax
  8003cd:	01 d0                	add    %edx,%eax
  8003cf:	0f b6 40 02          	movzbl 0x2(%eax),%eax
  8003d3:	c0 e8 02             	shr    $0x2,%al
  8003d6:	0f be c0             	movsbl %al,%eax
  8003d9:	50                   	push   %eax
  8003da:	68 c9 03 00 00       	push   $0x3c9
  8003df:	e8 38 ff ff ff       	call   80031c <out_byte>
  8003e4:	83 c4 08             	add    $0x8,%esp
  8003e7:	83 45 fc 01          	addl   $0x1,-0x4(%ebp)
  8003eb:	8b 45 fc             	mov    -0x4(%ebp),%eax
  8003ee:	3b 45 0c             	cmp    0xc(%ebp),%eax
  8003f1:	7c 80                	jl     800373 <write_palette+0x2e>
  8003f3:	90                   	nop
  8003f4:	c9                   	leave  
  8003f5:	c3                   	ret    

008003f6 <read_palette>:
  8003f6:	55                   	push   %ebp
  8003f7:	89 e5                	mov    %esp,%ebp
  8003f9:	53                   	push   %ebx
  8003fa:	83 ec 14             	sub    $0x14,%esp
  8003fd:	e8 2c fd ff ff       	call   80012e <__x86.get_pc_thunk.bx>
  800402:	81 c3 fe ab 04 00    	add    $0x4abfe,%ebx
  800408:	6a 00                	push   $0x0
  80040a:	68 c7 03 00 00       	push   $0x3c7
  80040f:	e8 08 ff ff ff       	call   80031c <out_byte>
  800414:	83 c4 08             	add    $0x8,%esp
  800417:	c7 45 f4 00 00 00 00 	movl   $0x0,-0xc(%ebp)
  80041e:	eb 52                	jmp    800472 <read_palette+0x7c>
  800420:	68 c9 03 00 00       	push   $0x3c9
  800425:	e8 cb fe ff ff       	call   8002f5 <in_byte>
  80042a:	83 c4 04             	add    $0x4,%esp
  80042d:	88 45 f3             	mov    %al,-0xd(%ebp)
  800430:	68 c9 03 00 00       	push   $0x3c9
  800435:	e8 bb fe ff ff       	call   8002f5 <in_byte>
  80043a:	83 c4 04             	add    $0x4,%esp
  80043d:	88 45 f2             	mov    %al,-0xe(%ebp)
  800440:	68 c9 03 00 00       	push   $0x3c9
  800445:	e8 ab fe ff ff       	call   8002f5 <in_byte>
  80044a:	83 c4 04             	add    $0x4,%esp
  80044d:	88 45 f1             	mov    %al,-0xf(%ebp)
  800450:	0f b6 4d f1          	movzbl -0xf(%ebp),%ecx
  800454:	0f b6 55 f2          	movzbl -0xe(%ebp),%edx
  800458:	0f b6 45 f3          	movzbl -0xd(%ebp),%eax
  80045c:	51                   	push   %ecx
  80045d:	52                   	push   %edx
  80045e:	50                   	push   %eax
  80045f:	8d 83 1e 64 ff ff    	lea    -0x9be2(%ebx),%eax
  800465:	50                   	push   %eax
  800466:	e8 a5 1e 03 00       	call   832310 <printf>
  80046b:	83 c4 10             	add    $0x10,%esp
  80046e:	83 45 f4 01          	addl   $0x1,-0xc(%ebp)
  800472:	81 7d f4 ff 00 00 00 	cmpl   $0xff,-0xc(%ebp)
  800479:	7e a5                	jle    800420 <read_palette+0x2a>
  80047b:	90                   	nop
  80047c:	8b 5d fc             	mov    -0x4(%ebp),%ebx
  80047f:	c9                   	leave  
  800480:	c3                   	ret    

00800481 <cli>:
  800481:	55                   	push   %ebp
  800482:	89 e5                	mov    %esp,%ebp
  800484:	e8 a1 fc ff ff       	call   80012a <__x86.get_pc_thunk.ax>
  800489:	05 77 ab 04 00       	add    $0x4ab77,%eax
  80048e:	fa                   	cli    
  80048f:	90                   	nop
  800490:	5d                   	pop    %ebp
  800491:	c3                   	ret    

00800492 <draw_pixel>:
  800492:	55                   	push   %ebp
  800493:	89 e5                	mov    %esp,%ebp
  800495:	53                   	push   %ebx
  800496:	83 ec 04             	sub    $0x4,%esp
  800499:	e8 90 fc ff ff       	call   80012e <__x86.get_pc_thunk.bx>
  80049e:	81 c3 62 ab 04 00    	add    $0x4ab62,%ebx
  8004a4:	83 7d 08 00          	cmpl   $0x0,0x8(%ebp)
  8004a8:	78 18                	js     8004c2 <draw_pixel+0x30>
  8004aa:	83 7d 0c 00          	cmpl   $0x0,0xc(%ebp)
  8004ae:	78 12                	js     8004c2 <draw_pixel+0x30>
  8004b0:	81 7d 08 c7 00 00 00 	cmpl   $0xc7,0x8(%ebp)
  8004b7:	7f 09                	jg     8004c2 <draw_pixel+0x30>
  8004b9:	81 7d 0c 3f 01 00 00 	cmpl   $0x13f,0xc(%ebp)
  8004c0:	7e 34                	jle    8004f6 <draw_pixel+0x64>
  8004c2:	e8 ba ff ff ff       	call   800481 <cli>
  8004c7:	83 ec 0c             	sub    $0xc,%esp
  8004ca:	8d 83 38 64 ff ff    	lea    -0x9bc8(%ebx),%eax
  8004d0:	50                   	push   %eax
  8004d1:	8d 83 0c 65 ff ff    	lea    -0x9af4(%ebx),%eax
  8004d7:	50                   	push   %eax
  8004d8:	6a 0f                	push   $0xf
  8004da:	8d 83 6c 64 ff ff    	lea    -0x9b94(%ebx),%eax
  8004e0:	50                   	push   %eax
  8004e1:	8d 83 88 64 ff ff    	lea    -0x9b78(%ebx),%eax
  8004e7:	50                   	push   %eax
  8004e8:	e8 23 1e 03 00       	call   832310 <printf>
  8004ed:	83 c4 20             	add    $0x20,%esp
  8004f0:	b8 01 00 00 00       	mov    $0x1,%eax
  8004f5:	82 8b 83 20 00 00 00 	orb    $0x0,0x2083(%ebx)
  8004fc:	8b 55 08             	mov    0x8(%ebp),%edx
  8004ff:	89 d1                	mov    %edx,%ecx
  800501:	c1 e1 08             	shl    $0x8,%ecx
  800504:	8b 55 08             	mov    0x8(%ebp),%edx
  800507:	c1 e2 06             	shl    $0x6,%edx
  80050a:	01 d1                	add    %edx,%ecx
  80050c:	8b 55 0c             	mov    0xc(%ebp),%edx
  80050f:	01 ca                	add    %ecx,%edx
  800511:	01 d0                	add    %edx,%eax
  800513:	8b 55 10             	mov    0x10(%ebp),%edx
  800516:	88 10                	mov    %dl,(%eax)
  800518:	90                   	nop
  800519:	8b 5d fc             	mov    -0x4(%ebp),%ebx
  80051c:	c9                   	leave  
  80051d:	c3                   	ret    

0080051e <prepare_buffer>:
  80051e:	55                   	push   %ebp
  80051f:	89 e5                	mov    %esp,%ebp
  800521:	53                   	push   %ebx
  800522:	83 ec 04             	sub    $0x4,%esp
  800525:	e8 00 fc ff ff       	call   80012a <__x86.get_pc_thunk.ax>
  80052a:	05 d6 aa 04 00       	add    $0x4aad6,%eax
  80052f:	8b 90 20 00 00 00    	mov    0x20(%eax),%edx
  800535:	83 ec 04             	sub    $0x4,%esp
  800538:	68 00 fa 00 00       	push   $0xfa00
  80053d:	6a 00                	push   $0x0
  80053f:	52                   	push   %edx
  800540:	89 c3                	mov    %eax,%ebx
  800542:	e8 96 1c 03 00       	call   8321dd <memset>
  800547:	83 c4 10             	add    $0x10,%esp
  80054a:	90                   	nop
  80054b:	8b 5d fc             	mov    -0x4(%ebp),%ebx
  80054e:	c9                   	leave  
  80054f:	c3                   	ret    

00800550 <display_buffer>:
  800550:	55                   	push   %ebp
  800551:	89 e5                	mov    %esp,%ebp
  800553:	57                   	push   %edi
  800554:	56                   	push   %esi
  800555:	53                   	push   %ebx
  800556:	e8 cf fb ff ff       	call   80012a <__x86.get_pc_thunk.ax>
  80055b:	05 a5 aa 04 00       	add    $0x4aaa5,%eax
  800560:	8b 80 20 00 00 00    	mov    0x20(%eax),%eax
  800566:	ba 80 3e 00 00       	mov    $0x3e80,%edx
  80056b:	bb 00 00 0a 00       	mov    $0xa0000,%ebx
  800570:	89 d1                	mov    %edx,%ecx
  800572:	89 c6                	mov    %eax,%esi
  800574:	89 df                	mov    %ebx,%edi
  800576:	fc                   	cld    
  800577:	f3 a5                	rep movsl %ds:(%esi),%es:(%edi)
  800579:	90                   	nop
  80057a:	5b                   	pop    %ebx
  80057b:	5e                   	pop    %esi
  80057c:	5f                   	pop    %edi
  80057d:	5d                   	pop    %ebp
  80057e:	c3                   	ret    

0080057f <draw_character>:
  80057f:	55                   	push   %ebp
  800580:	89 e5                	mov    %esp,%ebp
  800582:	53                   	push   %ebx
  800583:	83 ec 24             	sub    $0x24,%esp
  800586:	e8 a3 fb ff ff       	call   80012e <__x86.get_pc_thunk.bx>
  80058b:	81 c3 75 aa 04 00    	add    $0x4aa75,%ebx
  800591:	8b 45 08             	mov    0x8(%ebp),%eax
  800594:	88 45 e4             	mov    %al,-0x1c(%ebp)
  800597:	80 7d e4 00          	cmpb   $0x0,-0x1c(%ebp)
  80059b:	79 34                	jns    8005d1 <draw_character+0x52>
  80059d:	e8 df fe ff ff       	call   800481 <cli>
  8005a2:	83 ec 0c             	sub    $0xc,%esp
  8005a5:	8d 83 d0 64 ff ff    	lea    -0x9b30(%ebx),%eax
  8005ab:	50                   	push   %eax
  8005ac:	8d 83 fc 64 ff ff    	lea    -0x9b04(%ebx),%eax
  8005b2:	50                   	push   %eax
  8005b3:	6a 18                	push   $0x18
  8005b5:	8d 83 e1 64 ff ff    	lea    -0x9b1f(%ebx),%eax
  8005bb:	50                   	push   %eax
  8005bc:	8d 83 88 64 ff ff    	lea    -0x9b78(%ebx),%eax
  8005c2:	50                   	push   %eax
  8005c3:	e8 48 1d 03 00       	call   832310 <printf>
  8005c8:	83 c4 20             	add    $0x20,%esp
  8005cb:	b8 01 00 00 00       	mov    $0x1,%eax
  8005d0:	82 0f be             	orb    $0xbe,(%edi)
  8005d3:	45                   	inc    %ebp
  8005d4:	e4 8d                	in     $0x8d,%al
  8005d6:	14 c5                	adc    $0xc5,%al
  8005d8:	00 00                	add    %al,(%eax)
  8005da:	00 00                	add    %al,(%eax)
  8005dc:	c7 c0 40 b0 84 00    	mov    $0x84b040,%eax
  8005e2:	01 d0                	add    %edx,%eax
  8005e4:	89 45 ec             	mov    %eax,-0x14(%ebp)
  8005e7:	c7 45 f4 00 00 00 00 	movl   $0x0,-0xc(%ebp)
  8005ee:	eb 55                	jmp    800645 <draw_character+0xc6>
  8005f0:	c7 45 f0 00 00 00 00 	movl   $0x0,-0x10(%ebp)
  8005f7:	eb 42                	jmp    80063b <draw_character+0xbc>
  8005f9:	8b 55 f4             	mov    -0xc(%ebp),%edx
  8005fc:	8b 45 ec             	mov    -0x14(%ebp),%eax
  8005ff:	01 d0                	add    %edx,%eax
  800601:	0f b6 00             	movzbl (%eax),%eax
  800604:	0f be d0             	movsbl %al,%edx
  800607:	8b 45 f0             	mov    -0x10(%ebp),%eax
  80060a:	89 c1                	mov    %eax,%ecx
  80060c:	d3 fa                	sar    %cl,%edx
  80060e:	89 d0                	mov    %edx,%eax
  800610:	83 e0 01             	and    $0x1,%eax
  800613:	85 c0                	test   %eax,%eax
  800615:	74 20                	je     800637 <draw_character+0xb8>
  800617:	8b 55 10             	mov    0x10(%ebp),%edx
  80061a:	8b 45 f0             	mov    -0x10(%ebp),%eax
  80061d:	01 c2                	add    %eax,%edx
  80061f:	8b 4d 0c             	mov    0xc(%ebp),%ecx
  800622:	8b 45 f4             	mov    -0xc(%ebp),%eax
  800625:	01 c8                	add    %ecx,%eax
  800627:	83 ec 04             	sub    $0x4,%esp
  80062a:	ff 75 14             	pushl  0x14(%ebp)
  80062d:	52                   	push   %edx
  80062e:	50                   	push   %eax
  80062f:	e8 5e fe ff ff       	call   800492 <draw_pixel>
  800634:	83 c4 10             	add    $0x10,%esp
  800637:	83 45 f0 01          	addl   $0x1,-0x10(%ebp)
  80063b:	83 7d f0 07          	cmpl   $0x7,-0x10(%ebp)
  80063f:	7e b8                	jle    8005f9 <draw_character+0x7a>
  800641:	83 45 f4 01          	addl   $0x1,-0xc(%ebp)
  800645:	83 7d f4 07          	cmpl   $0x7,-0xc(%ebp)
  800649:	7e a5                	jle    8005f0 <draw_character+0x71>
  80064b:	90                   	nop
  80064c:	8b 5d fc             	mov    -0x4(%ebp),%ebx
  80064f:	c9                   	leave  
  800650:	c3                   	ret    

00800651 <draw_string>:
  800651:	55                   	push   %ebp
  800652:	89 e5                	mov    %esp,%ebp
  800654:	83 ec 08             	sub    $0x8,%esp
  800657:	e8 ce fa ff ff       	call   80012a <__x86.get_pc_thunk.ax>
  80065c:	05 a4 a9 04 00       	add    $0x4a9a4,%eax
  800661:	eb 3f                	jmp    8006a2 <draw_string+0x51>
  800663:	8b 45 08             	mov    0x8(%ebp),%eax
  800666:	8d 50 01             	lea    0x1(%eax),%edx
  800669:	89 55 08             	mov    %edx,0x8(%ebp)
  80066c:	0f b6 00             	movzbl (%eax),%eax
  80066f:	0f be c0             	movsbl %al,%eax
  800672:	ff 75 14             	pushl  0x14(%ebp)
  800675:	ff 75 10             	pushl  0x10(%ebp)
  800678:	ff 75 0c             	pushl  0xc(%ebp)
  80067b:	50                   	push   %eax
  80067c:	e8 fe fe ff ff       	call   80057f <draw_character>
  800681:	83 c4 10             	add    $0x10,%esp
  800684:	8b 45 10             	mov    0x10(%ebp),%eax
  800687:	83 c0 08             	add    $0x8,%eax
  80068a:	3d 3f 01 00 00       	cmp    $0x13f,%eax
  80068f:	7e 0d                	jle    80069e <draw_string+0x4d>
  800691:	83 45 0c 08          	addl   $0x8,0xc(%ebp)
  800695:	c7 45 10 00 00 00 00 	movl   $0x0,0x10(%ebp)
  80069c:	eb 04                	jmp    8006a2 <draw_string+0x51>
  80069e:	83 45 10 08          	addl   $0x8,0x10(%ebp)
  8006a2:	8b 45 08             	mov    0x8(%ebp),%eax
  8006a5:	0f b6 00             	movzbl (%eax),%eax
  8006a8:	84 c0                	test   %al,%al
  8006aa:	75 b7                	jne    800663 <draw_string+0x12>
  8006ac:	90                   	nop
  8006ad:	c9                   	leave  
  8006ae:	c3                   	ret    

008006af <out_byte>:
  8006af:	55                   	push   %ebp
  8006b0:	89 e5                	mov    %esp,%ebp
  8006b2:	83 ec 08             	sub    $0x8,%esp
  8006b5:	e8 70 fa ff ff       	call   80012a <__x86.get_pc_thunk.ax>
  8006ba:	05 46 a9 04 00       	add    $0x4a946,%eax
  8006bf:	8b 55 08             	mov    0x8(%ebp),%edx
  8006c2:	8b 45 0c             	mov    0xc(%ebp),%eax
  8006c5:	66 89 55 fc          	mov    %dx,-0x4(%ebp)
  8006c9:	88 45 f8             	mov    %al,-0x8(%ebp)
  8006cc:	0f b6 45 f8          	movzbl -0x8(%ebp),%eax
  8006d0:	0f b7 55 fc          	movzwl -0x4(%ebp),%edx
  8006d4:	ee                   	out    %al,(%dx)
  8006d5:	90                   	nop
  8006d6:	c9                   	leave  
  8006d7:	c3                   	ret    

008006d8 <cli>:
  8006d8:	55                   	push   %ebp
  8006d9:	89 e5                	mov    %esp,%ebp
  8006db:	e8 4a fa ff ff       	call   80012a <__x86.get_pc_thunk.ax>
  8006e0:	05 20 a9 04 00       	add    $0x4a920,%eax
  8006e5:	fa                   	cli    
  8006e6:	90                   	nop
  8006e7:	5d                   	pop    %ebp
  8006e8:	c3                   	ret    

008006e9 <init_timer>:
  8006e9:	55                   	push   %ebp
  8006ea:	89 e5                	mov    %esp,%ebp
  8006ec:	53                   	push   %ebx
  8006ed:	83 ec 14             	sub    $0x14,%esp
  8006f0:	e8 39 fa ff ff       	call   80012e <__x86.get_pc_thunk.bx>
  8006f5:	81 c3 0b a9 04 00    	add    $0x4a90b,%ebx
  8006fb:	c7 45 f4 9b 2e 00 00 	movl   $0x2e9b,-0xc(%ebp)
  800702:	81 7d f4 ff ff 00 00 	cmpl   $0xffff,-0xc(%ebp)
  800709:	7e 34                	jle    80073f <init_timer+0x56>
  80070b:	e8 c8 ff ff ff       	call   8006d8 <cli>
  800710:	83 ec 0c             	sub    $0xc,%esp
  800713:	8d 83 18 65 ff ff    	lea    -0x9ae8(%ebx),%eax
  800719:	50                   	push   %eax
  80071a:	8d 83 8c 65 ff ff    	lea    -0x9a74(%ebx),%eax
  800720:	50                   	push   %eax
  800721:	6a 08                	push   $0x8
  800723:	8d 83 28 65 ff ff    	lea    -0x9ad8(%ebx),%eax
  800729:	50                   	push   %eax
  80072a:	8d 83 44 65 ff ff    	lea    -0x9abc(%ebx),%eax
  800730:	50                   	push   %eax
  800731:	e8 da 1b 03 00       	call   832310 <printf>
  800736:	83 c4 20             	add    $0x20,%esp
  800739:	b8 01 00 00 00       	mov    $0x1,%eax
  80073e:	82 83 ec 08 6a 34 6a 	addb   $0x6a,0x346a08ec(%ebx)
  800745:	43                   	inc    %ebx
  800746:	e8 64 ff ff ff       	call   8006af <out_byte>
  80074b:	83 c4 10             	add    $0x10,%esp
  80074e:	8b 45 f4             	mov    -0xc(%ebp),%eax
  800751:	99                   	cltd   
  800752:	c1 ea 18             	shr    $0x18,%edx
  800755:	01 d0                	add    %edx,%eax
  800757:	0f b6 c0             	movzbl %al,%eax
  80075a:	29 d0                	sub    %edx,%eax
  80075c:	0f be c0             	movsbl %al,%eax
  80075f:	83 ec 08             	sub    $0x8,%esp
  800762:	50                   	push   %eax
  800763:	6a 40                	push   $0x40
  800765:	e8 45 ff ff ff       	call   8006af <out_byte>
  80076a:	83 c4 10             	add    $0x10,%esp
  80076d:	8b 45 f4             	mov    -0xc(%ebp),%eax
  800770:	8d 90 ff 00 00 00    	lea    0xff(%eax),%edx
  800776:	85 c0                	test   %eax,%eax
  800778:	0f 48 c2             	cmovs  %edx,%eax
  80077b:	c1 f8 08             	sar    $0x8,%eax
  80077e:	0f be c0             	movsbl %al,%eax
  800781:	83 ec 08             	sub    $0x8,%esp
  800784:	50                   	push   %eax
  800785:	6a 40                	push   $0x40
  800787:	e8 23 ff ff ff       	call   8006af <out_byte>
  80078c:	83 c4 10             	add    $0x10,%esp
  80078f:	90                   	nop
  800790:	8b 5d fc             	mov    -0x4(%ebp),%ebx
  800793:	c9                   	leave  
  800794:	c3                   	ret    

00800795 <cli>:
  800795:	55                   	push   %ebp
  800796:	89 e5                	mov    %esp,%ebp
  800798:	e8 8d f9 ff ff       	call   80012a <__x86.get_pc_thunk.ax>
  80079d:	05 63 a8 04 00       	add    $0x4a863,%eax
  8007a2:	fa                   	cli    
  8007a3:	90                   	nop
  8007a4:	5d                   	pop    %ebp
  8007a5:	c3                   	ret    

008007a6 <SDL_BlitSurface>:
  8007a6:	55                   	push   %ebp
  8007a7:	89 e5                	mov    %esp,%ebp
  8007a9:	53                   	push   %ebx
  8007aa:	83 ec 34             	sub    $0x34,%esp
  8007ad:	e8 7c f9 ff ff       	call   80012e <__x86.get_pc_thunk.bx>
  8007b2:	81 c3 4e a8 04 00    	add    $0x4a84e,%ebx
  8007b8:	83 7d 10 00          	cmpl   $0x0,0x10(%ebp)
  8007bc:	74 06                	je     8007c4 <SDL_BlitSurface+0x1e>
  8007be:	83 7d 08 00          	cmpl   $0x0,0x8(%ebp)
  8007c2:	75 34                	jne    8007f8 <SDL_BlitSurface+0x52>
  8007c4:	e8 cc ff ff ff       	call   800795 <cli>
  8007c9:	83 ec 0c             	sub    $0xc,%esp
  8007cc:	8d 83 98 65 ff ff    	lea    -0x9a68(%ebx),%eax
  8007d2:	50                   	push   %eax
  8007d3:	8d 83 c0 66 ff ff    	lea    -0x9940(%ebx),%eax
  8007d9:	50                   	push   %eax
  8007da:	6a 0c                	push   $0xc
  8007dc:	8d 83 a3 65 ff ff    	lea    -0x9a5d(%ebx),%eax
  8007e2:	50                   	push   %eax
  8007e3:	8d 83 bc 65 ff ff    	lea    -0x9a44(%ebx),%eax
  8007e9:	50                   	push   %eax
  8007ea:	e8 21 1b 03 00       	call   832310 <printf>
  8007ef:	83 c4 20             	add    $0x20,%esp
  8007f2:	b8 01 00 00 00       	mov    $0x1,%eax
  8007f7:	82 8b 45 0c 0f b7 40 	orb    $0x40,-0x48f0f3bb(%ebx)
  8007fe:	02 66 89             	add    -0x77(%esi),%ah
  800801:	45                   	inc    %ebp
  800802:	e6 8b                	out    %al,$0x8b
  800804:	45                   	inc    %ebp
  800805:	0c 0f                	or     $0xf,%al
  800807:	b7 00                	mov    $0x0,%bh
  800809:	66 89 45 e4          	mov    %ax,-0x1c(%ebp)
  80080d:	8b 45 0c             	mov    0xc(%ebp),%eax
  800810:	0f b7 50 06          	movzwl 0x6(%eax),%edx
  800814:	0f b7 45 e6          	movzwl -0x1a(%ebp),%eax
  800818:	01 d0                	add    %edx,%eax
  80081a:	66 89 45 e2          	mov    %ax,-0x1e(%ebp)
  80081e:	8b 45 0c             	mov    0xc(%ebp),%eax
  800821:	0f b7 50 04          	movzwl 0x4(%eax),%edx
  800825:	0f b7 45 e4          	movzwl -0x1c(%ebp),%eax
  800829:	01 d0                	add    %edx,%eax
  80082b:	66 89 45 e0          	mov    %ax,-0x20(%ebp)
  80082f:	8b 45 14             	mov    0x14(%ebp),%eax
  800832:	0f b7 40 02          	movzwl 0x2(%eax),%eax
  800836:	66 89 45 de          	mov    %ax,-0x22(%ebp)
  80083a:	8b 45 14             	mov    0x14(%ebp),%eax
  80083d:	0f b7 00             	movzwl (%eax),%eax
  800840:	66 89 45 dc          	mov    %ax,-0x24(%ebp)
  800844:	8b 45 10             	mov    0x10(%ebp),%eax
  800847:	8b 40 0c             	mov    0xc(%eax),%eax
  80084a:	0f bf 4d de          	movswl -0x22(%ebp),%ecx
  80084e:	8b 55 0c             	mov    0xc(%ebp),%edx
  800851:	0f b7 52 06          	movzwl 0x6(%edx),%edx
  800855:	0f b7 d2             	movzwl %dx,%edx
  800858:	01 ca                	add    %ecx,%edx
  80085a:	39 d0                	cmp    %edx,%eax
  80085c:	0f 4f c2             	cmovg  %edx,%eax
  80085f:	66 89 45 da          	mov    %ax,-0x26(%ebp)
  800863:	8b 45 10             	mov    0x10(%ebp),%eax
  800866:	8b 40 08             	mov    0x8(%eax),%eax
  800869:	0f bf 4d dc          	movswl -0x24(%ebp),%ecx
  80086d:	8b 55 0c             	mov    0xc(%ebp),%edx
  800870:	0f b7 52 04          	movzwl 0x4(%edx),%edx
  800874:	0f b7 d2             	movzwl %dx,%edx
  800877:	01 ca                	add    %ecx,%edx
  800879:	39 d0                	cmp    %edx,%eax
  80087b:	0f 4f c2             	cmovg  %edx,%eax
  80087e:	66 89 45 d8          	mov    %ax,-0x28(%ebp)
  800882:	0f bf 45 de          	movswl -0x22(%ebp),%eax
  800886:	89 45 ec             	mov    %eax,-0x14(%ebp)
  800889:	0f bf 45 dc          	movswl -0x24(%ebp),%eax
  80088d:	89 45 e8             	mov    %eax,-0x18(%ebp)
  800890:	0f bf 45 e6          	movswl -0x1a(%ebp),%eax
  800894:	89 45 f4             	mov    %eax,-0xc(%ebp)
  800897:	e9 81 00 00 00       	jmp    80091d <SDL_BlitSurface+0x177>
  80089c:	0f bf 45 e4          	movswl -0x1c(%ebp),%eax
  8008a0:	89 45 f0             	mov    %eax,-0x10(%ebp)
  8008a3:	eb 54                	jmp    8008f9 <SDL_BlitSurface+0x153>
  8008a5:	8b 45 08             	mov    0x8(%ebp),%eax
  8008a8:	8b 40 08             	mov    0x8(%eax),%eax
  8008ab:	0f af 45 f4          	imul   -0xc(%ebp),%eax
  8008af:	89 c2                	mov    %eax,%edx
  8008b1:	8b 45 f0             	mov    -0x10(%ebp),%eax
  8008b4:	01 d0                	add    %edx,%eax
  8008b6:	89 45 d4             	mov    %eax,-0x2c(%ebp)
  8008b9:	8b 45 10             	mov    0x10(%ebp),%eax
  8008bc:	8b 40 08             	mov    0x8(%eax),%eax
  8008bf:	0f af 45 ec          	imul   -0x14(%ebp),%eax
  8008c3:	89 c2                	mov    %eax,%edx
  8008c5:	8b 45 e8             	mov    -0x18(%ebp),%eax
  8008c8:	01 d0                	add    %edx,%eax
  8008ca:	89 45 d0             	mov    %eax,-0x30(%ebp)
  8008cd:	8b 45 10             	mov    0x10(%ebp),%eax
  8008d0:	8b 50 20             	mov    0x20(%eax),%edx
  8008d3:	8b 45 d0             	mov    -0x30(%ebp),%eax
  8008d6:	01 c2                	add    %eax,%edx
  8008d8:	8b 45 08             	mov    0x8(%ebp),%eax
  8008db:	8b 48 20             	mov    0x20(%eax),%ecx
  8008de:	8b 45 d4             	mov    -0x2c(%ebp),%eax
  8008e1:	01 c8                	add    %ecx,%eax
  8008e3:	0f b6 00             	movzbl (%eax),%eax
  8008e6:	88 02                	mov    %al,(%edx)
  8008e8:	83 45 e8 01          	addl   $0x1,-0x18(%ebp)
  8008ec:	0f bf 45 d8          	movswl -0x28(%ebp),%eax
  8008f0:	3b 45 e8             	cmp    -0x18(%ebp),%eax
  8008f3:	74 0f                	je     800904 <SDL_BlitSurface+0x15e>
  8008f5:	83 45 f0 01          	addl   $0x1,-0x10(%ebp)
  8008f9:	0f bf 45 e0          	movswl -0x20(%ebp),%eax
  8008fd:	3b 45 f0             	cmp    -0x10(%ebp),%eax
  800900:	7f a3                	jg     8008a5 <SDL_BlitSurface+0xff>
  800902:	eb 01                	jmp    800905 <SDL_BlitSurface+0x15f>
  800904:	90                   	nop
  800905:	83 45 ec 01          	addl   $0x1,-0x14(%ebp)
  800909:	0f bf 45 dc          	movswl -0x24(%ebp),%eax
  80090d:	89 45 e8             	mov    %eax,-0x18(%ebp)
  800910:	0f bf 45 da          	movswl -0x26(%ebp),%eax
  800914:	3b 45 ec             	cmp    -0x14(%ebp),%eax
  800917:	74 13                	je     80092c <SDL_BlitSurface+0x186>
  800919:	83 45 f4 01          	addl   $0x1,-0xc(%ebp)
  80091d:	0f bf 45 e2          	movswl -0x1e(%ebp),%eax
  800921:	3b 45 f4             	cmp    -0xc(%ebp),%eax
  800924:	0f 8f 72 ff ff ff    	jg     80089c <SDL_BlitSurface+0xf6>
  80092a:	eb 01                	jmp    80092d <SDL_BlitSurface+0x187>
  80092c:	90                   	nop
  80092d:	90                   	nop
  80092e:	8b 5d fc             	mov    -0x4(%ebp),%ebx
  800931:	c9                   	leave  
  800932:	c3                   	ret    

00800933 <SDL_FillRect>:
  800933:	55                   	push   %ebp
  800934:	89 e5                	mov    %esp,%ebp
  800936:	53                   	push   %ebx
  800937:	83 ec 24             	sub    $0x24,%esp
  80093a:	e8 ef f7 ff ff       	call   80012e <__x86.get_pc_thunk.bx>
  80093f:	81 c3 c1 a6 04 00    	add    $0x4a6c1,%ebx
  800945:	83 7d 08 00          	cmpl   $0x0,0x8(%ebp)
  800949:	75 34                	jne    80097f <SDL_FillRect+0x4c>
  80094b:	e8 45 fe ff ff       	call   800795 <cli>
  800950:	83 ec 0c             	sub    $0xc,%esp
  800953:	8d 83 04 66 ff ff    	lea    -0x99fc(%ebx),%eax
  800959:	50                   	push   %eax
  80095a:	8d 83 d0 66 ff ff    	lea    -0x9930(%ebx),%eax
  800960:	50                   	push   %eax
  800961:	6a 3e                	push   $0x3e
  800963:	8d 83 a3 65 ff ff    	lea    -0x9a5d(%ebx),%eax
  800969:	50                   	push   %eax
  80096a:	8d 83 bc 65 ff ff    	lea    -0x9a44(%ebx),%eax
  800970:	50                   	push   %eax
  800971:	e8 9a 19 03 00       	call   832310 <printf>
  800976:	83 c4 20             	add    $0x20,%esp
  800979:	b8 01 00 00 00       	mov    $0x1,%eax
  80097e:	82 81 7d 10 ff 00 00 	addb   $0x0,0xff107d(%ecx)
  800985:	00 76 34             	add    %dh,0x34(%esi)
  800988:	e8 08 fe ff ff       	call   800795 <cli>
  80098d:	83 ec 0c             	sub    $0xc,%esp
  800990:	8d 83 08 66 ff ff    	lea    -0x99f8(%ebx),%eax
  800996:	50                   	push   %eax
  800997:	8d 83 d0 66 ff ff    	lea    -0x9930(%ebx),%eax
  80099d:	50                   	push   %eax
  80099e:	6a 3f                	push   $0x3f
  8009a0:	8d 83 a3 65 ff ff    	lea    -0x9a5d(%ebx),%eax
  8009a6:	50                   	push   %eax
  8009a7:	8d 83 bc 65 ff ff    	lea    -0x9a44(%ebx),%eax
  8009ad:	50                   	push   %eax
  8009ae:	e8 5d 19 03 00       	call   832310 <printf>
  8009b3:	83 c4 20             	add    $0x20,%esp
  8009b6:	b8 01 00 00 00       	mov    $0x1,%eax
  8009bb:	82 8b 45 0c 0f b7 40 	orb    $0x40,-0x48f0f3bb(%ebx)
  8009c2:	02 66 89             	add    -0x77(%esi),%ah
  8009c5:	45                   	inc    %ebp
  8009c6:	ee                   	out    %al,(%dx)
  8009c7:	8b 45 0c             	mov    0xc(%ebp),%eax
  8009ca:	0f b7 00             	movzwl (%eax),%eax
  8009cd:	66 89 45 ec          	mov    %ax,-0x14(%ebp)
  8009d1:	8b 45 08             	mov    0x8(%ebp),%eax
  8009d4:	8b 40 0c             	mov    0xc(%eax),%eax
  8009d7:	0f bf 4d ee          	movswl -0x12(%ebp),%ecx
  8009db:	8b 55 0c             	mov    0xc(%ebp),%edx
  8009de:	0f b7 52 06          	movzwl 0x6(%edx),%edx
  8009e2:	0f b7 d2             	movzwl %dx,%edx
  8009e5:	01 ca                	add    %ecx,%edx
  8009e7:	39 d0                	cmp    %edx,%eax
  8009e9:	0f 4f c2             	cmovg  %edx,%eax
  8009ec:	66 89 45 ea          	mov    %ax,-0x16(%ebp)
  8009f0:	8b 45 08             	mov    0x8(%ebp),%eax
  8009f3:	8b 40 08             	mov    0x8(%eax),%eax
  8009f6:	0f bf 4d ec          	movswl -0x14(%ebp),%ecx
  8009fa:	8b 55 0c             	mov    0xc(%ebp),%edx
  8009fd:	0f b7 52 04          	movzwl 0x4(%edx),%edx
  800a01:	0f b7 d2             	movzwl %dx,%edx
  800a04:	01 ca                	add    %ecx,%edx
  800a06:	39 d0                	cmp    %edx,%eax
  800a08:	0f 4f c2             	cmovg  %edx,%eax
  800a0b:	66 89 45 e8          	mov    %ax,-0x18(%ebp)
  800a0f:	0f bf 45 ee          	movswl -0x12(%ebp),%eax
  800a13:	89 45 f4             	mov    %eax,-0xc(%ebp)
  800a16:	eb 3e                	jmp    800a56 <SDL_FillRect+0x123>
  800a18:	0f bf 45 ec          	movswl -0x14(%ebp),%eax
  800a1c:	89 45 f0             	mov    %eax,-0x10(%ebp)
  800a1f:	eb 28                	jmp    800a49 <SDL_FillRect+0x116>
  800a21:	8b 45 08             	mov    0x8(%ebp),%eax
  800a24:	8b 40 08             	mov    0x8(%eax),%eax
  800a27:	0f af 45 f4          	imul   -0xc(%ebp),%eax
  800a2b:	89 c2                	mov    %eax,%edx
  800a2d:	8b 45 f0             	mov    -0x10(%ebp),%eax
  800a30:	01 d0                	add    %edx,%eax
  800a32:	89 45 e4             	mov    %eax,-0x1c(%ebp)
  800a35:	8b 45 08             	mov    0x8(%ebp),%eax
  800a38:	8b 50 20             	mov    0x20(%eax),%edx
  800a3b:	8b 45 e4             	mov    -0x1c(%ebp),%eax
  800a3e:	01 d0                	add    %edx,%eax
  800a40:	8b 55 10             	mov    0x10(%ebp),%edx
  800a43:	88 10                	mov    %dl,(%eax)
  800a45:	83 45 f0 01          	addl   $0x1,-0x10(%ebp)
  800a49:	0f bf 45 e8          	movswl -0x18(%ebp),%eax
  800a4d:	3b 45 f0             	cmp    -0x10(%ebp),%eax
  800a50:	7f cf                	jg     800a21 <SDL_FillRect+0xee>
  800a52:	83 45 f4 01          	addl   $0x1,-0xc(%ebp)
  800a56:	0f bf 45 ea          	movswl -0x16(%ebp),%eax
  800a5a:	3b 45 f4             	cmp    -0xc(%ebp),%eax
  800a5d:	7f b9                	jg     800a18 <SDL_FillRect+0xe5>
  800a5f:	90                   	nop
  800a60:	8b 5d fc             	mov    -0x4(%ebp),%ebx
  800a63:	c9                   	leave  
  800a64:	c3                   	ret    

00800a65 <SDL_SetPalette>:
  800a65:	55                   	push   %ebp
  800a66:	89 e5                	mov    %esp,%ebp
  800a68:	56                   	push   %esi
  800a69:	53                   	push   %ebx
  800a6a:	e8 bf f6 ff ff       	call   80012e <__x86.get_pc_thunk.bx>
  800a6f:	81 c3 91 a5 04 00    	add    $0x4a591,%ebx
  800a75:	83 7d 08 00          	cmpl   $0x0,0x8(%ebp)
  800a79:	75 34                	jne    800aaf <SDL_SetPalette+0x4a>
  800a7b:	e8 15 fd ff ff       	call   800795 <cli>
  800a80:	83 ec 0c             	sub    $0xc,%esp
  800a83:	8d 83 16 66 ff ff    	lea    -0x99ea(%ebx),%eax
  800a89:	50                   	push   %eax
  800a8a:	8d 83 e0 66 ff ff    	lea    -0x9920(%ebx),%eax
  800a90:	50                   	push   %eax
  800a91:	6a 55                	push   $0x55
  800a93:	8d 83 a3 65 ff ff    	lea    -0x9a5d(%ebx),%eax
  800a99:	50                   	push   %eax
  800a9a:	8d 83 bc 65 ff ff    	lea    -0x9a44(%ebx),%eax
  800aa0:	50                   	push   %eax
  800aa1:	e8 6a 18 03 00       	call   832310 <printf>
  800aa6:	83 c4 20             	add    $0x20,%esp
  800aa9:	b8 01 00 00 00       	mov    $0x1,%eax
  800aae:	82 8b 45 08 8b 40 04 	orb    $0x4,0x408b0845(%ebx)
  800ab5:	85 c0                	test   %eax,%eax
  800ab7:	75 34                	jne    800aed <SDL_SetPalette+0x88>
  800ab9:	e8 d7 fc ff ff       	call   800795 <cli>
  800abe:	83 ec 0c             	sub    $0xc,%esp
  800ac1:	8d 83 18 66 ff ff    	lea    -0x99e8(%ebx),%eax
  800ac7:	50                   	push   %eax
  800ac8:	8d 83 e0 66 ff ff    	lea    -0x9920(%ebx),%eax
  800ace:	50                   	push   %eax
  800acf:	6a 56                	push   $0x56
  800ad1:	8d 83 a3 65 ff ff    	lea    -0x9a5d(%ebx),%eax
  800ad7:	50                   	push   %eax
  800ad8:	8d 83 bc 65 ff ff    	lea    -0x9a44(%ebx),%eax
  800ade:	50                   	push   %eax
  800adf:	e8 2c 18 03 00       	call   832310 <printf>
  800ae4:	83 c4 20             	add    $0x20,%esp
  800ae7:	b8 01 00 00 00       	mov    $0x1,%eax
  800aec:	82 8b 45 08 8b 40 04 	orb    $0x4,0x408b0845(%ebx)
  800af3:	8b 00                	mov    (%eax),%eax
  800af5:	85 c0                	test   %eax,%eax
  800af7:	75 34                	jne    800b2d <SDL_SetPalette+0xc8>
  800af9:	e8 97 fc ff ff       	call   800795 <cli>
  800afe:	83 ec 0c             	sub    $0xc,%esp
  800b01:	8d 83 22 66 ff ff    	lea    -0x99de(%ebx),%eax
  800b07:	50                   	push   %eax
  800b08:	8d 83 e0 66 ff ff    	lea    -0x9920(%ebx),%eax
  800b0e:	50                   	push   %eax
  800b0f:	6a 57                	push   $0x57
  800b11:	8d 83 a3 65 ff ff    	lea    -0x9a5d(%ebx),%eax
  800b17:	50                   	push   %eax
  800b18:	8d 83 bc 65 ff ff    	lea    -0x9a44(%ebx),%eax
  800b1e:	50                   	push   %eax
  800b1f:	e8 ec 17 03 00       	call   832310 <printf>
  800b24:	83 c4 20             	add    $0x20,%esp
  800b27:	b8 01 00 00 00       	mov    $0x1,%eax
  800b2c:	82 83 7d 14 00 74 34 	addb   $0x34,0x7400147d(%ebx)
  800b33:	e8 5d fc ff ff       	call   800795 <cli>
  800b38:	83 ec 0c             	sub    $0xc,%esp
  800b3b:	8d 83 35 66 ff ff    	lea    -0x99cb(%ebx),%eax
  800b41:	50                   	push   %eax
  800b42:	8d 83 e0 66 ff ff    	lea    -0x9920(%ebx),%eax
  800b48:	50                   	push   %eax
  800b49:	6a 58                	push   $0x58
  800b4b:	8d 83 a3 65 ff ff    	lea    -0x9a5d(%ebx),%eax
  800b51:	50                   	push   %eax
  800b52:	8d 83 bc 65 ff ff    	lea    -0x9a44(%ebx),%eax
  800b58:	50                   	push   %eax
  800b59:	e8 b2 17 03 00       	call   832310 <printf>
  800b5e:	83 c4 20             	add    $0x20,%esp
  800b61:	b8 01 00 00 00       	mov    $0x1,%eax
  800b66:	82 8b 45 08 8b 40 04 	orb    $0x4,0x408b0845(%ebx)
  800b6d:	8b 00                	mov    (%eax),%eax
  800b6f:	8b 40 04             	mov    0x4(%eax),%eax
  800b72:	85 c0                	test   %eax,%eax
  800b74:	74 13                	je     800b89 <SDL_SetPalette+0x124>
  800b76:	8b 45 08             	mov    0x8(%ebp),%eax
  800b79:	8b 40 04             	mov    0x4(%eax),%eax
  800b7c:	8b 00                	mov    (%eax),%eax
  800b7e:	8b 00                	mov    (%eax),%eax
  800b80:	3b 45 18             	cmp    0x18(%ebp),%eax
  800b83:	0f 84 95 00 00 00    	je     800c1e <SDL_SetPalette+0x1b9>
  800b89:	8b 45 08             	mov    0x8(%ebp),%eax
  800b8c:	8b 40 04             	mov    0x4(%eax),%eax
  800b8f:	8b 00                	mov    (%eax),%eax
  800b91:	8b 00                	mov    (%eax),%eax
  800b93:	3b 45 18             	cmp    0x18(%ebp),%eax
  800b96:	74 26                	je     800bbe <SDL_SetPalette+0x159>
  800b98:	8b 45 08             	mov    0x8(%ebp),%eax
  800b9b:	8b 40 04             	mov    0x4(%eax),%eax
  800b9e:	8b 00                	mov    (%eax),%eax
  800ba0:	8b 40 04             	mov    0x4(%eax),%eax
  800ba3:	85 c0                	test   %eax,%eax
  800ba5:	74 17                	je     800bbe <SDL_SetPalette+0x159>
  800ba7:	8b 45 08             	mov    0x8(%ebp),%eax
  800baa:	8b 40 04             	mov    0x4(%eax),%eax
  800bad:	8b 00                	mov    (%eax),%eax
  800baf:	8b 40 04             	mov    0x4(%eax),%eax
  800bb2:	83 ec 0c             	sub    $0xc,%esp
  800bb5:	50                   	push   %eax
  800bb6:	e8 55 0d 03 00       	call   831910 <free>
  800bbb:	83 c4 10             	add    $0x10,%esp
  800bbe:	8b 45 08             	mov    0x8(%ebp),%eax
  800bc1:	8b 40 04             	mov    0x4(%eax),%eax
  800bc4:	8b 30                	mov    (%eax),%esi
  800bc6:	8b 45 18             	mov    0x18(%ebp),%eax
  800bc9:	c1 e0 02             	shl    $0x2,%eax
  800bcc:	83 ec 0c             	sub    $0xc,%esp
  800bcf:	50                   	push   %eax
  800bd0:	e8 1b 0d 03 00       	call   8318f0 <malloc>
  800bd5:	83 c4 10             	add    $0x10,%esp
  800bd8:	89 46 04             	mov    %eax,0x4(%esi)
  800bdb:	8b 45 08             	mov    0x8(%ebp),%eax
  800bde:	8b 40 04             	mov    0x4(%eax),%eax
  800be1:	8b 00                	mov    (%eax),%eax
  800be3:	8b 40 04             	mov    0x4(%eax),%eax
  800be6:	85 c0                	test   %eax,%eax
  800be8:	75 34                	jne    800c1e <SDL_SetPalette+0x1b9>
  800bea:	e8 a6 fb ff ff       	call   800795 <cli>
  800bef:	83 ec 0c             	sub    $0xc,%esp
  800bf2:	8d 83 45 66 ff ff    	lea    -0x99bb(%ebx),%eax
  800bf8:	50                   	push   %eax
  800bf9:	8d 83 e0 66 ff ff    	lea    -0x9920(%ebx),%eax
  800bff:	50                   	push   %eax
  800c00:	6a 64                	push   $0x64
  800c02:	8d 83 a3 65 ff ff    	lea    -0x9a5d(%ebx),%eax
  800c08:	50                   	push   %eax
  800c09:	8d 83 bc 65 ff ff    	lea    -0x9a44(%ebx),%eax
  800c0f:	50                   	push   %eax
  800c10:	e8 fb 16 03 00       	call   832310 <printf>
  800c15:	83 c4 20             	add    $0x20,%esp
  800c18:	b8 01 00 00 00       	mov    $0x1,%eax
  800c1d:	82 8b 45 08 8b 40 04 	orb    $0x4,0x408b0845(%ebx)
  800c24:	8b 00                	mov    (%eax),%eax
  800c26:	8b 55 18             	mov    0x18(%ebp),%edx
  800c29:	89 10                	mov    %edx,(%eax)
  800c2b:	8b 45 18             	mov    0x18(%ebp),%eax
  800c2e:	8d 14 85 00 00 00 00 	lea    0x0(,%eax,4),%edx
  800c35:	8b 45 08             	mov    0x8(%ebp),%eax
  800c38:	8b 40 04             	mov    0x4(%eax),%eax
  800c3b:	8b 00                	mov    (%eax),%eax
  800c3d:	8b 40 04             	mov    0x4(%eax),%eax
  800c40:	83 ec 04             	sub    $0x4,%esp
  800c43:	52                   	push   %edx
  800c44:	ff 75 10             	pushl  0x10(%ebp)
  800c47:	50                   	push   %eax
  800c48:	e8 bb 14 03 00       	call   832108 <memcpy>
  800c4d:	83 c4 10             	add    $0x10,%esp
  800c50:	8b 45 08             	mov    0x8(%ebp),%eax
  800c53:	8b 00                	mov    (%eax),%eax
  800c55:	83 e0 01             	and    $0x1,%eax
  800c58:	85 c0                	test   %eax,%eax
  800c5a:	74 11                	je     800c6d <SDL_SetPalette+0x208>
  800c5c:	83 ec 08             	sub    $0x8,%esp
  800c5f:	ff 75 18             	pushl  0x18(%ebp)
  800c62:	ff 75 10             	pushl  0x10(%ebp)
  800c65:	e8 db f6 ff ff       	call   800345 <write_palette>
  800c6a:	83 c4 10             	add    $0x10,%esp
  800c6d:	90                   	nop
  800c6e:	8d 65 f8             	lea    -0x8(%ebp),%esp
  800c71:	5b                   	pop    %ebx
  800c72:	5e                   	pop    %esi
  800c73:	5d                   	pop    %ebp
  800c74:	c3                   	ret    

00800c75 <SDL_UpdateRect>:
  800c75:	55                   	push   %ebp
  800c76:	89 e5                	mov    %esp,%ebp
  800c78:	53                   	push   %ebx
  800c79:	83 ec 54             	sub    $0x54,%esp
  800c7c:	e8 ad f4 ff ff       	call   80012e <__x86.get_pc_thunk.bx>
  800c81:	81 c3 7f a3 04 00    	add    $0x4a37f,%ebx
  800c87:	83 7d 08 00          	cmpl   $0x0,0x8(%ebp)
  800c8b:	75 34                	jne    800cc1 <SDL_UpdateRect+0x4c>
  800c8d:	e8 03 fb ff ff       	call   800795 <cli>
  800c92:	83 ec 0c             	sub    $0xc,%esp
  800c95:	8d 83 60 66 ff ff    	lea    -0x99a0(%ebx),%eax
  800c9b:	50                   	push   %eax
  800c9c:	8d 83 f0 66 ff ff    	lea    -0x9910(%ebx),%eax
  800ca2:	50                   	push   %eax
  800ca3:	6a 75                	push   $0x75
  800ca5:	8d 83 a3 65 ff ff    	lea    -0x9a5d(%ebx),%eax
  800cab:	50                   	push   %eax
  800cac:	8d 83 bc 65 ff ff    	lea    -0x9a44(%ebx),%eax
  800cb2:	50                   	push   %eax
  800cb3:	e8 58 16 03 00       	call   832310 <printf>
  800cb8:	83 c4 20             	add    $0x20,%esp
  800cbb:	b8 01 00 00 00       	mov    $0x1,%eax
  800cc0:	82 8b 45 08 0f b7 40 	orb    $0x40,-0x48f0f7bb(%ebx)
  800cc7:	10 66 3d             	adc    %ah,0x3d(%esi)
  800cca:	40                   	inc    %eax
  800ccb:	01 74 34 e8          	add    %esi,-0x18(%esp,%esi,1)
  800ccf:	c2 fa ff             	ret    $0xfffa
  800cd2:	ff 83 ec 0c 8d 83    	incl   -0x7c72f314(%ebx)
  800cd8:	67 66 ff             	addr16 data16 (bad) 
  800cdb:	ff 50 8d             	call   *-0x73(%eax)
  800cde:	83 f0 66             	xor    $0x66,%eax
  800ce1:	ff                   	(bad)  
  800ce2:	ff 50 6a             	call   *0x6a(%eax)
  800ce5:	76 8d                	jbe    800c74 <SDL_SetPalette+0x20f>
  800ce7:	83 a3 65 ff ff 50 8d 	andl   $0xffffff8d,0x50ffff65(%ebx)
  800cee:	83 bc 65 ff ff 50 e8 	cmpl   $0x17,-0x17af0001(%ebp,%eiz,2)
  800cf5:	17 
  800cf6:	16                   	push   %ss
  800cf7:	03 00                	add    (%eax),%eax
  800cf9:	83 c4 20             	add    $0x20,%esp
  800cfc:	b8 01 00 00 00       	mov    $0x1,%eax
  800d01:	82 8b 45 08 8b 00 83 	orb    $0x83,0x8b0845(%ebx)
  800d08:	e0 01                	loopne 800d0b <SDL_UpdateRect+0x96>
  800d0a:	85 c0                	test   %eax,%eax
  800d0c:	75 34                	jne    800d42 <SDL_UpdateRect+0xcd>
  800d0e:	e8 82 fa ff ff       	call   800795 <cli>
  800d13:	83 ec 0c             	sub    $0xc,%esp
  800d16:	8d 83 7c 66 ff ff    	lea    -0x9984(%ebx),%eax
  800d1c:	50                   	push   %eax
  800d1d:	8d 83 f0 66 ff ff    	lea    -0x9910(%ebx),%eax
  800d23:	50                   	push   %eax
  800d24:	6a 79                	push   $0x79
  800d26:	8d 83 a3 65 ff ff    	lea    -0x9a5d(%ebx),%eax
  800d2c:	50                   	push   %eax
  800d2d:	8d 83 bc 65 ff ff    	lea    -0x9a44(%ebx),%eax
  800d33:	50                   	push   %eax
  800d34:	e8 d7 15 03 00       	call   832310 <printf>
  800d39:	83 c4 20             	add    $0x20,%esp
  800d3c:	b8 01 00 00 00       	mov    $0x1,%eax
  800d41:	82 83 7d 0c 00 75 40 	addb   $0x40,0x75000c7d(%ebx)
  800d48:	83 7d 10 00          	cmpl   $0x0,0x10(%ebp)
  800d4c:	75 3a                	jne    800d88 <SDL_UpdateRect+0x113>
  800d4e:	c7 c0 20 b0 84 00    	mov    $0x84b020,%eax
  800d54:	c7 00 00 00 0a 00    	movl   $0xa0000,(%eax)
  800d5a:	e8 98 04 00 00       	call   8011f7 <get_fps>
  800d5f:	83 ec 04             	sub    $0x4,%esp
  800d62:	50                   	push   %eax
  800d63:	8d 83 9a 66 ff ff    	lea    -0x9966(%ebx),%eax
  800d69:	50                   	push   %eax
  800d6a:	8d 45 a8             	lea    -0x58(%ebp),%eax
  800d6d:	50                   	push   %eax
  800d6e:	e8 9d 19 03 00       	call   832710 <sprintf>
  800d73:	83 c4 10             	add    $0x10,%esp
  800d76:	6a 0a                	push   $0xa
  800d78:	6a 00                	push   $0x0
  800d7a:	6a 00                	push   $0x0
  800d7c:	8d 45 a8             	lea    -0x58(%ebp),%eax
  800d7f:	50                   	push   %eax
  800d80:	e8 cc f8 ff ff       	call   800651 <draw_string>
  800d85:	83 c4 10             	add    $0x10,%esp
  800d88:	90                   	nop
  800d89:	8b 5d fc             	mov    -0x4(%ebp),%ebx
  800d8c:	c9                   	leave  
  800d8d:	c3                   	ret    

00800d8e <SDL_SoftStretch>:
  800d8e:	55                   	push   %ebp
  800d8f:	89 e5                	mov    %esp,%ebp
  800d91:	53                   	push   %ebx
  800d92:	83 ec 24             	sub    $0x24,%esp
  800d95:	e8 94 f3 ff ff       	call   80012e <__x86.get_pc_thunk.bx>
  800d9a:	81 c3 66 a2 04 00    	add    $0x4a266,%ebx
  800da0:	83 7d 08 00          	cmpl   $0x0,0x8(%ebp)
  800da4:	74 06                	je     800dac <SDL_SoftStretch+0x1e>
  800da6:	83 7d 10 00          	cmpl   $0x0,0x10(%ebp)
  800daa:	75 37                	jne    800de3 <SDL_SoftStretch+0x55>
  800dac:	e8 e4 f9 ff ff       	call   800795 <cli>
  800db1:	83 ec 0c             	sub    $0xc,%esp
  800db4:	8d 83 a0 66 ff ff    	lea    -0x9960(%ebx),%eax
  800dba:	50                   	push   %eax
  800dbb:	8d 83 00 67 ff ff    	lea    -0x9900(%ebx),%eax
  800dc1:	50                   	push   %eax
  800dc2:	68 86 00 00 00       	push   $0x86
  800dc7:	8d 83 a3 65 ff ff    	lea    -0x9a5d(%ebx),%eax
  800dcd:	50                   	push   %eax
  800dce:	8d 83 bc 65 ff ff    	lea    -0x9a44(%ebx),%eax
  800dd4:	50                   	push   %eax
  800dd5:	e8 36 15 03 00       	call   832310 <printf>
  800dda:	83 c4 20             	add    $0x20,%esp
  800ddd:	b8 01 00 00 00       	mov    $0x1,%eax
  800de2:	82 83 7d 0c 00 74 09 	addb   $0x9,0x74000c7d(%ebx)
  800de9:	8b 45 0c             	mov    0xc(%ebp),%eax
  800dec:	0f b7 00             	movzwl (%eax),%eax
  800def:	98                   	cwtl   
  800df0:	eb 05                	jmp    800df7 <SDL_SoftStretch+0x69>
  800df2:	b8 00 00 00 00       	mov    $0x0,%eax
  800df7:	89 45 f4             	mov    %eax,-0xc(%ebp)
  800dfa:	83 7d 0c 00          	cmpl   $0x0,0xc(%ebp)
  800dfe:	74 0a                	je     800e0a <SDL_SoftStretch+0x7c>
  800e00:	8b 45 0c             	mov    0xc(%ebp),%eax
  800e03:	0f b7 40 02          	movzwl 0x2(%eax),%eax
  800e07:	98                   	cwtl   
  800e08:	eb 05                	jmp    800e0f <SDL_SoftStretch+0x81>
  800e0a:	b8 00 00 00 00       	mov    $0x0,%eax
  800e0f:	89 45 f0             	mov    %eax,-0x10(%ebp)
  800e12:	83 7d 0c 00          	cmpl   $0x0,0xc(%ebp)
  800e16:	75 08                	jne    800e20 <SDL_SoftStretch+0x92>
  800e18:	8b 45 08             	mov    0x8(%ebp),%eax
  800e1b:	8b 40 08             	mov    0x8(%eax),%eax
  800e1e:	eb 0a                	jmp    800e2a <SDL_SoftStretch+0x9c>
  800e20:	8b 45 0c             	mov    0xc(%ebp),%eax
  800e23:	0f b7 40 04          	movzwl 0x4(%eax),%eax
  800e27:	0f b7 c0             	movzwl %ax,%eax
  800e2a:	89 45 ec             	mov    %eax,-0x14(%ebp)
  800e2d:	83 7d 0c 00          	cmpl   $0x0,0xc(%ebp)
  800e31:	75 08                	jne    800e3b <SDL_SoftStretch+0xad>
  800e33:	8b 45 08             	mov    0x8(%ebp),%eax
  800e36:	8b 40 0c             	mov    0xc(%eax),%eax
  800e39:	eb 0a                	jmp    800e45 <SDL_SoftStretch+0xb7>
  800e3b:	8b 45 0c             	mov    0xc(%ebp),%eax
  800e3e:	0f b7 40 06          	movzwl 0x6(%eax),%eax
  800e42:	0f b7 c0             	movzwl %ax,%eax
  800e45:	89 45 e8             	mov    %eax,-0x18(%ebp)
  800e48:	83 7d 14 00          	cmpl   $0x0,0x14(%ebp)
  800e4c:	75 37                	jne    800e85 <SDL_SoftStretch+0xf7>
  800e4e:	e8 42 f9 ff ff       	call   800795 <cli>
  800e53:	83 ec 0c             	sub    $0xc,%esp
  800e56:	8d 83 ab 66 ff ff    	lea    -0x9955(%ebx),%eax
  800e5c:	50                   	push   %eax
  800e5d:	8d 83 00 67 ff ff    	lea    -0x9900(%ebx),%eax
  800e63:	50                   	push   %eax
  800e64:	68 8c 00 00 00       	push   $0x8c
  800e69:	8d 83 a3 65 ff ff    	lea    -0x9a5d(%ebx),%eax
  800e6f:	50                   	push   %eax
  800e70:	8d 83 bc 65 ff ff    	lea    -0x9a44(%ebx),%eax
  800e76:	50                   	push   %eax
  800e77:	e8 94 14 03 00       	call   832310 <printf>
  800e7c:	83 c4 20             	add    $0x20,%esp
  800e7f:	b8 01 00 00 00       	mov    $0x1,%eax
  800e84:	82 8b 45 14 0f b7 40 	orb    $0x40,-0x48f0ebbb(%ebx)
  800e8b:	04 0f                	add    $0xf,%al
  800e8d:	b7 c0                	mov    $0xc0,%bh
  800e8f:	3b 45 ec             	cmp    -0x14(%ebp),%eax
  800e92:	75 42                	jne    800ed6 <SDL_SoftStretch+0x148>
  800e94:	8b 45 14             	mov    0x14(%ebp),%eax
  800e97:	0f b7 40 06          	movzwl 0x6(%eax),%eax
  800e9b:	0f b7 c0             	movzwl %ax,%eax
  800e9e:	3b 45 e8             	cmp    -0x18(%ebp),%eax
  800ea1:	75 33                	jne    800ed6 <SDL_SoftStretch+0x148>
  800ea3:	8b 45 f4             	mov    -0xc(%ebp),%eax
  800ea6:	66 89 45 e0          	mov    %ax,-0x20(%ebp)
  800eaa:	8b 45 f0             	mov    -0x10(%ebp),%eax
  800ead:	66 89 45 e2          	mov    %ax,-0x1e(%ebp)
  800eb1:	8b 45 ec             	mov    -0x14(%ebp),%eax
  800eb4:	66 89 45 e4          	mov    %ax,-0x1c(%ebp)
  800eb8:	8b 45 e8             	mov    -0x18(%ebp),%eax
  800ebb:	66 89 45 e6          	mov    %ax,-0x1a(%ebp)
  800ebf:	ff 75 14             	pushl  0x14(%ebp)
  800ec2:	ff 75 10             	pushl  0x10(%ebp)
  800ec5:	8d 45 e0             	lea    -0x20(%ebp),%eax
  800ec8:	50                   	push   %eax
  800ec9:	ff 75 08             	pushl  0x8(%ebp)
  800ecc:	e8 d5 f8 ff ff       	call   8007a6 <SDL_BlitSurface>
  800ed1:	83 c4 10             	add    $0x10,%esp
  800ed4:	eb 37                	jmp    800f0d <SDL_SoftStretch+0x17f>
  800ed6:	e8 ba f8 ff ff       	call   800795 <cli>
  800edb:	83 ec 0c             	sub    $0xc,%esp
  800ede:	8d 83 b3 66 ff ff    	lea    -0x994d(%ebx),%eax
  800ee4:	50                   	push   %eax
  800ee5:	8d 83 00 67 ff ff    	lea    -0x9900(%ebx),%eax
  800eeb:	50                   	push   %eax
  800eec:	68 9a 00 00 00       	push   $0x9a
  800ef1:	8d 83 a3 65 ff ff    	lea    -0x9a5d(%ebx),%eax
  800ef7:	50                   	push   %eax
  800ef8:	8d 83 bc 65 ff ff    	lea    -0x9a44(%ebx),%eax
  800efe:	50                   	push   %eax
  800eff:	e8 0c 14 03 00       	call   832310 <printf>
  800f04:	83 c4 20             	add    $0x20,%esp
  800f07:	b8 01 00 00 00       	mov    $0x1,%eax
  800f0c:	82 90 8b 5d fc c9 c3 	adcb   $0xc3,-0x3603a275(%eax)

00800f13 <SDL_CreateRGBSurface>:
  800f13:	55                   	push   %ebp
  800f14:	89 e5                	mov    %esp,%ebp
  800f16:	56                   	push   %esi
  800f17:	53                   	push   %ebx
  800f18:	83 ec 10             	sub    $0x10,%esp
  800f1b:	e8 0e f2 ff ff       	call   80012e <__x86.get_pc_thunk.bx>
  800f20:	81 c3 e0 a0 04 00    	add    $0x4a0e0,%ebx
  800f26:	83 ec 0c             	sub    $0xc,%esp
  800f29:	6a 24                	push   $0x24
  800f2b:	e8 c0 09 03 00       	call   8318f0 <malloc>
  800f30:	83 c4 10             	add    $0x10,%esp
  800f33:	89 45 f4             	mov    %eax,-0xc(%ebp)
  800f36:	83 7d f4 00          	cmpl   $0x0,-0xc(%ebp)
  800f3a:	75 37                	jne    800f73 <SDL_CreateRGBSurface+0x60>
  800f3c:	e8 54 f8 ff ff       	call   800795 <cli>
  800f41:	83 ec 0c             	sub    $0xc,%esp
  800f44:	8d 83 16 66 ff ff    	lea    -0x99ea(%ebx),%eax
  800f4a:	50                   	push   %eax
  800f4b:	8d 83 10 67 ff ff    	lea    -0x98f0(%ebx),%eax
  800f51:	50                   	push   %eax
  800f52:	68 a1 00 00 00       	push   $0xa1
  800f57:	8d 83 a3 65 ff ff    	lea    -0x9a5d(%ebx),%eax
  800f5d:	50                   	push   %eax
  800f5e:	8d 83 bc 65 ff ff    	lea    -0x9a44(%ebx),%eax
  800f64:	50                   	push   %eax
  800f65:	e8 a6 13 03 00       	call   832310 <printf>
  800f6a:	83 c4 20             	add    $0x20,%esp
  800f6d:	b8 01 00 00 00       	mov    $0x1,%eax
  800f72:	82 83 ec 0c 6a 28 e8 	addb   $0xe8,0x286a0cec(%ebx)
  800f79:	73 09                	jae    800f84 <SDL_CreateRGBSurface+0x71>
  800f7b:	03 00                	add    (%eax),%eax
  800f7d:	83 c4 10             	add    $0x10,%esp
  800f80:	89 c2                	mov    %eax,%edx
  800f82:	8b 45 f4             	mov    -0xc(%ebp),%eax
  800f85:	89 50 04             	mov    %edx,0x4(%eax)
  800f88:	83 7d f4 00          	cmpl   $0x0,-0xc(%ebp)
  800f8c:	75 37                	jne    800fc5 <SDL_CreateRGBSurface+0xb2>
  800f8e:	e8 02 f8 ff ff       	call   800795 <cli>
  800f93:	83 ec 0c             	sub    $0xc,%esp
  800f96:	8d 83 16 66 ff ff    	lea    -0x99ea(%ebx),%eax
  800f9c:	50                   	push   %eax
  800f9d:	8d 83 10 67 ff ff    	lea    -0x98f0(%ebx),%eax
  800fa3:	50                   	push   %eax
  800fa4:	68 a3 00 00 00       	push   $0xa3
  800fa9:	8d 83 a3 65 ff ff    	lea    -0x9a5d(%ebx),%eax
  800faf:	50                   	push   %eax
  800fb0:	8d 83 bc 65 ff ff    	lea    -0x9a44(%ebx),%eax
  800fb6:	50                   	push   %eax
  800fb7:	e8 54 13 03 00       	call   832310 <printf>
  800fbc:	83 c4 20             	add    $0x20,%esp
  800fbf:	b8 01 00 00 00       	mov    $0x1,%eax
  800fc4:	82 8b 45 f4 8b 70 04 	orb    $0x4,0x708bf445(%ebx)
  800fcb:	83 ec 0c             	sub    $0xc,%esp
  800fce:	6a 08                	push   $0x8
  800fd0:	e8 1b 09 03 00       	call   8318f0 <malloc>
  800fd5:	83 c4 10             	add    $0x10,%esp
  800fd8:	89 06                	mov    %eax,(%esi)
  800fda:	8b 45 f4             	mov    -0xc(%ebp),%eax
  800fdd:	8b 40 04             	mov    0x4(%eax),%eax
  800fe0:	8b 00                	mov    (%eax),%eax
  800fe2:	85 c0                	test   %eax,%eax
  800fe4:	75 37                	jne    80101d <SDL_CreateRGBSurface+0x10a>
  800fe6:	e8 aa f7 ff ff       	call   800795 <cli>
  800feb:	83 ec 0c             	sub    $0xc,%esp
  800fee:	8d 83 22 66 ff ff    	lea    -0x99de(%ebx),%eax
  800ff4:	50                   	push   %eax
  800ff5:	8d 83 10 67 ff ff    	lea    -0x98f0(%ebx),%eax
  800ffb:	50                   	push   %eax
  800ffc:	68 a5 00 00 00       	push   $0xa5
  801001:	8d 83 a3 65 ff ff    	lea    -0x9a5d(%ebx),%eax
  801007:	50                   	push   %eax
  801008:	8d 83 bc 65 ff ff    	lea    -0x9a44(%ebx),%eax
  80100e:	50                   	push   %eax
  80100f:	e8 fc 12 03 00       	call   832310 <printf>
  801014:	83 c4 20             	add    $0x20,%esp
  801017:	b8 01 00 00 00       	mov    $0x1,%eax
  80101c:	82 8b 45 f4 8b 40 04 	orb    $0x4,0x408bf445(%ebx)
  801023:	8b 00                	mov    (%eax),%eax
  801025:	c7 40 04 00 00 00 00 	movl   $0x0,0x4(%eax)
  80102c:	8b 45 f4             	mov    -0xc(%ebp),%eax
  80102f:	8b 40 04             	mov    0x4(%eax),%eax
  801032:	8b 55 14             	mov    0x14(%ebp),%edx
  801035:	88 50 04             	mov    %dl,0x4(%eax)
  801038:	8b 45 f4             	mov    -0xc(%ebp),%eax
  80103b:	8b 55 08             	mov    0x8(%ebp),%edx
  80103e:	89 10                	mov    %edx,(%eax)
  801040:	8b 45 f4             	mov    -0xc(%ebp),%eax
  801043:	8b 55 0c             	mov    0xc(%ebp),%edx
  801046:	89 50 08             	mov    %edx,0x8(%eax)
  801049:	8b 45 f4             	mov    -0xc(%ebp),%eax
  80104c:	8b 55 10             	mov    0x10(%ebp),%edx
  80104f:	89 50 0c             	mov    %edx,0xc(%eax)
  801052:	8b 45 0c             	mov    0xc(%ebp),%eax
  801055:	0f af 45 14          	imul   0x14(%ebp),%eax
  801059:	c1 f8 03             	sar    $0x3,%eax
  80105c:	89 c2                	mov    %eax,%edx
  80105e:	8b 45 f4             	mov    -0xc(%ebp),%eax
  801061:	66 89 50 10          	mov    %dx,0x10(%eax)
  801065:	8b 45 08             	mov    0x8(%ebp),%eax
  801068:	83 e0 01             	and    $0x1,%eax
  80106b:	85 c0                	test   %eax,%eax
  80106d:	75 1e                	jne    80108d <SDL_CreateRGBSurface+0x17a>
  80106f:	8b 45 f4             	mov    -0xc(%ebp),%eax
  801072:	0f b7 40 10          	movzwl 0x10(%eax),%eax
  801076:	0f b7 c0             	movzwl %ax,%eax
  801079:	0f af 45 10          	imul   0x10(%ebp),%eax
  80107d:	83 ec 0c             	sub    $0xc,%esp
  801080:	50                   	push   %eax
  801081:	e8 6a 08 03 00       	call   8318f0 <malloc>
  801086:	83 c4 10             	add    $0x10,%esp
  801089:	89 c2                	mov    %eax,%edx
  80108b:	eb 05                	jmp    801092 <SDL_CreateRGBSurface+0x17f>
  80108d:	ba 00 00 0a 00       	mov    $0xa0000,%edx
  801092:	8b 45 f4             	mov    -0xc(%ebp),%eax
  801095:	89 50 20             	mov    %edx,0x20(%eax)
  801098:	8b 45 f4             	mov    -0xc(%ebp),%eax
  80109b:	8b 40 20             	mov    0x20(%eax),%eax
  80109e:	85 c0                	test   %eax,%eax
  8010a0:	75 37                	jne    8010d9 <SDL_CreateRGBSurface+0x1c6>
  8010a2:	e8 ee f6 ff ff       	call   800795 <cli>
  8010a7:	83 ec 0c             	sub    $0xc,%esp
  8010aa:	8d 83 b5 66 ff ff    	lea    -0x994b(%ebx),%eax
  8010b0:	50                   	push   %eax
  8010b1:	8d 83 10 67 ff ff    	lea    -0x98f0(%ebx),%eax
  8010b7:	50                   	push   %eax
  8010b8:	68 af 00 00 00       	push   $0xaf
  8010bd:	8d 83 a3 65 ff ff    	lea    -0x9a5d(%ebx),%eax
  8010c3:	50                   	push   %eax
  8010c4:	8d 83 bc 65 ff ff    	lea    -0x9a44(%ebx),%eax
  8010ca:	50                   	push   %eax
  8010cb:	e8 40 12 03 00       	call   832310 <printf>
  8010d0:	83 c4 20             	add    $0x20,%esp
  8010d3:	b8 01 00 00 00       	mov    $0x1,%eax
  8010d8:	82 8b 45 f4 8d 65 f8 	orb    $0xf8,0x658df445(%ebx)
  8010df:	5b                   	pop    %ebx
  8010e0:	5e                   	pop    %esi
  8010e1:	5d                   	pop    %ebp
  8010e2:	c3                   	ret    

008010e3 <SDL_SetVideoMode>:
  8010e3:	55                   	push   %ebp
  8010e4:	89 e5                	mov    %esp,%ebp
  8010e6:	83 ec 08             	sub    $0x8,%esp
  8010e9:	e8 3c f0 ff ff       	call   80012a <__x86.get_pc_thunk.ax>
  8010ee:	05 12 9f 04 00       	add    $0x49f12,%eax
  8010f3:	68 00 00 00 ff       	push   $0xff000000
  8010f8:	68 00 00 ff 00       	push   $0xff0000
  8010fd:	68 00 ff 00 00       	push   $0xff00
  801102:	68 ff 00 00 00       	push   $0xff
  801107:	ff 75 10             	pushl  0x10(%ebp)
  80110a:	ff 75 0c             	pushl  0xc(%ebp)
  80110d:	ff 75 08             	pushl  0x8(%ebp)
  801110:	ff 75 14             	pushl  0x14(%ebp)
  801113:	e8 fb fd ff ff       	call   800f13 <SDL_CreateRGBSurface>
  801118:	83 c4 20             	add    $0x20,%esp
  80111b:	c9                   	leave  
  80111c:	c3                   	ret    

0080111d <SDL_FreeSurface>:
  80111d:	55                   	push   %ebp
  80111e:	89 e5                	mov    %esp,%ebp
  801120:	53                   	push   %ebx
  801121:	83 ec 04             	sub    $0x4,%esp
  801124:	e8 05 f0 ff ff       	call   80012e <__x86.get_pc_thunk.bx>
  801129:	81 c3 d7 9e 04 00    	add    $0x49ed7,%ebx
  80112f:	83 7d 08 00          	cmpl   $0x0,0x8(%ebp)
  801133:	0f 84 99 00 00 00    	je     8011d2 <SDL_FreeSurface+0xb5>
  801139:	8b 45 08             	mov    0x8(%ebp),%eax
  80113c:	8b 40 04             	mov    0x4(%eax),%eax
  80113f:	85 c0                	test   %eax,%eax
  801141:	74 58                	je     80119b <SDL_FreeSurface+0x7e>
  801143:	8b 45 08             	mov    0x8(%ebp),%eax
  801146:	8b 40 04             	mov    0x4(%eax),%eax
  801149:	8b 00                	mov    (%eax),%eax
  80114b:	85 c0                	test   %eax,%eax
  80114d:	74 3a                	je     801189 <SDL_FreeSurface+0x6c>
  80114f:	8b 45 08             	mov    0x8(%ebp),%eax
  801152:	8b 40 04             	mov    0x4(%eax),%eax
  801155:	8b 00                	mov    (%eax),%eax
  801157:	8b 40 04             	mov    0x4(%eax),%eax
  80115a:	85 c0                	test   %eax,%eax
  80115c:	74 17                	je     801175 <SDL_FreeSurface+0x58>
  80115e:	8b 45 08             	mov    0x8(%ebp),%eax
  801161:	8b 40 04             	mov    0x4(%eax),%eax
  801164:	8b 00                	mov    (%eax),%eax
  801166:	8b 40 04             	mov    0x4(%eax),%eax
  801169:	83 ec 0c             	sub    $0xc,%esp
  80116c:	50                   	push   %eax
  80116d:	e8 9e 07 03 00       	call   831910 <free>
  801172:	83 c4 10             	add    $0x10,%esp
  801175:	8b 45 08             	mov    0x8(%ebp),%eax
  801178:	8b 40 04             	mov    0x4(%eax),%eax
  80117b:	8b 00                	mov    (%eax),%eax
  80117d:	83 ec 0c             	sub    $0xc,%esp
  801180:	50                   	push   %eax
  801181:	e8 8a 07 03 00       	call   831910 <free>
  801186:	83 c4 10             	add    $0x10,%esp
  801189:	8b 45 08             	mov    0x8(%ebp),%eax
  80118c:	8b 40 04             	mov    0x4(%eax),%eax
  80118f:	83 ec 0c             	sub    $0xc,%esp
  801192:	50                   	push   %eax
  801193:	e8 78 07 03 00       	call   831910 <free>
  801198:	83 c4 10             	add    $0x10,%esp
  80119b:	8b 45 08             	mov    0x8(%ebp),%eax
  80119e:	8b 40 20             	mov    0x20(%eax),%eax
  8011a1:	85 c0                	test   %eax,%eax
  8011a3:	74 1f                	je     8011c4 <SDL_FreeSurface+0xa7>
  8011a5:	8b 45 08             	mov    0x8(%ebp),%eax
  8011a8:	8b 40 20             	mov    0x20(%eax),%eax
  8011ab:	3d 00 00 0a 00       	cmp    $0xa0000,%eax
  8011b0:	74 12                	je     8011c4 <SDL_FreeSurface+0xa7>
  8011b2:	8b 45 08             	mov    0x8(%ebp),%eax
  8011b5:	8b 40 20             	mov    0x20(%eax),%eax
  8011b8:	83 ec 0c             	sub    $0xc,%esp
  8011bb:	50                   	push   %eax
  8011bc:	e8 4f 07 03 00       	call   831910 <free>
  8011c1:	83 c4 10             	add    $0x10,%esp
  8011c4:	83 ec 0c             	sub    $0xc,%esp
  8011c7:	ff 75 08             	pushl  0x8(%ebp)
  8011ca:	e8 41 07 03 00       	call   831910 <free>
  8011cf:	83 c4 10             	add    $0x10,%esp
  8011d2:	90                   	nop
  8011d3:	8b 5d fc             	mov    -0x4(%ebp),%ebx
  8011d6:	c9                   	leave  
  8011d7:	c3                   	ret    

008011d8 <incr_nr_draw>:
  8011d8:	55                   	push   %ebp
  8011d9:	89 e5                	mov    %esp,%ebp
  8011db:	e8 4a ef ff ff       	call   80012a <__x86.get_pc_thunk.ax>
  8011e0:	05 20 9e 04 00       	add    $0x49e20,%eax
  8011e5:	8b 90 e8 0f 01 00    	mov    0x10fe8(%eax),%edx
  8011eb:	83 c2 01             	add    $0x1,%edx
  8011ee:	89 90 e8 0f 01 00    	mov    %edx,0x10fe8(%eax)
  8011f4:	90                   	nop
  8011f5:	5d                   	pop    %ebp
  8011f6:	c3                   	ret    

008011f7 <get_fps>:
  8011f7:	55                   	push   %ebp
  8011f8:	89 e5                	mov    %esp,%ebp
  8011fa:	e8 2b ef ff ff       	call   80012a <__x86.get_pc_thunk.ax>
  8011ff:	05 01 9e 04 00       	add    $0x49e01,%eax
  801204:	8b 80 e4 0f 01 00    	mov    0x10fe4(%eax),%eax
  80120a:	5d                   	pop    %ebp
  80120b:	c3                   	ret    

0080120c <timer_event>:
  80120c:	55                   	push   %ebp
  80120d:	89 e5                	mov    %esp,%ebp
  80120f:	53                   	push   %ebx
  801210:	e8 a4 00 00 00       	call   8012b9 <__x86.get_pc_thunk.cx>
  801215:	81 c1 eb 9d 04 00    	add    $0x49deb,%ecx
  80121b:	8b 81 e0 0f 01 00    	mov    0x10fe0(%ecx),%eax
  801221:	83 c0 01             	add    $0x1,%eax
  801224:	89 81 e0 0f 01 00    	mov    %eax,0x10fe0(%ecx)
  80122a:	8b 99 e0 0f 01 00    	mov    0x10fe0(%ecx),%ebx
  801230:	ba 1f 85 eb 51       	mov    $0x51eb851f,%edx
  801235:	89 d8                	mov    %ebx,%eax
  801237:	f7 e2                	mul    %edx
  801239:	89 d0                	mov    %edx,%eax
  80123b:	c1 e8 04             	shr    $0x4,%eax
  80123e:	6b c0 32             	imul   $0x32,%eax,%eax
  801241:	29 c3                	sub    %eax,%ebx
  801243:	89 d8                	mov    %ebx,%eax
  801245:	85 c0                	test   %eax,%eax
  801247:	75 1b                	jne    801264 <timer_event+0x58>
  801249:	8b 81 e8 0f 01 00    	mov    0x10fe8(%ecx),%eax
  80124f:	01 c0                	add    %eax,%eax
  801251:	83 c0 01             	add    $0x1,%eax
  801254:	89 81 e4 0f 01 00    	mov    %eax,0x10fe4(%ecx)
  80125a:	c7 81 e8 0f 01 00 00 	movl   $0x0,0x10fe8(%ecx)
  801261:	00 00 00 
  801264:	90                   	nop
  801265:	5b                   	pop    %ebx
  801266:	5d                   	pop    %ebp
  801267:	c3                   	ret    

00801268 <SDL_GetTicks>:
  801268:	55                   	push   %ebp
  801269:	89 e5                	mov    %esp,%ebp
  80126b:	e8 ba ee ff ff       	call   80012a <__x86.get_pc_thunk.ax>
  801270:	05 90 9d 04 00       	add    $0x49d90,%eax
  801275:	8b 90 e0 0f 01 00    	mov    0x10fe0(%eax),%edx
  80127b:	89 d0                	mov    %edx,%eax
  80127d:	c1 e0 02             	shl    $0x2,%eax
  801280:	01 d0                	add    %edx,%eax
  801282:	01 c0                	add    %eax,%eax
  801284:	5d                   	pop    %ebp
  801285:	c3                   	ret    

00801286 <SDL_Delay>:
  801286:	55                   	push   %ebp
  801287:	89 e5                	mov    %esp,%ebp
  801289:	83 ec 10             	sub    $0x10,%esp
  80128c:	e8 99 ee ff ff       	call   80012a <__x86.get_pc_thunk.ax>
  801291:	05 6f 9d 04 00       	add    $0x49d6f,%eax
  801296:	e8 cd ff ff ff       	call   801268 <SDL_GetTicks>
  80129b:	89 45 fc             	mov    %eax,-0x4(%ebp)
  80129e:	8b 55 fc             	mov    -0x4(%ebp),%edx
  8012a1:	8b 45 08             	mov    0x8(%ebp),%eax
  8012a4:	01 d0                	add    %edx,%eax
  8012a6:	89 45 f8             	mov    %eax,-0x8(%ebp)
  8012a9:	e8 ba ff ff ff       	call   801268 <SDL_GetTicks>
  8012ae:	3b 45 f8             	cmp    -0x8(%ebp),%eax
  8012b1:	77 02                	ja     8012b5 <SDL_Delay+0x2f>
  8012b3:	eb f4                	jmp    8012a9 <SDL_Delay+0x23>
  8012b5:	90                   	nop
  8012b6:	90                   	nop
  8012b7:	c9                   	leave  
  8012b8:	c3                   	ret    

008012b9 <__x86.get_pc_thunk.cx>:
  8012b9:	8b 0c 24             	mov    (%esp),%ecx
  8012bc:	c3                   	ret    

008012bd <in_byte>:
  8012bd:	55                   	push   %ebp
  8012be:	89 e5                	mov    %esp,%ebp
  8012c0:	83 ec 14             	sub    $0x14,%esp
  8012c3:	e8 62 ee ff ff       	call   80012a <__x86.get_pc_thunk.ax>
  8012c8:	05 38 9d 04 00       	add    $0x49d38,%eax
  8012cd:	8b 45 08             	mov    0x8(%ebp),%eax
  8012d0:	66 89 45 ec          	mov    %ax,-0x14(%ebp)
  8012d4:	0f b7 45 ec          	movzwl -0x14(%ebp),%eax
  8012d8:	89 c2                	mov    %eax,%edx
  8012da:	ec                   	in     (%dx),%al
  8012db:	88 45 ff             	mov    %al,-0x1(%ebp)
  8012de:	0f b6 45 ff          	movzbl -0x1(%ebp),%eax
  8012e2:	c9                   	leave  
  8012e3:	c3                   	ret    

008012e4 <sti>:
  8012e4:	55                   	push   %ebp
  8012e5:	89 e5                	mov    %esp,%ebp
  8012e7:	e8 3e ee ff ff       	call   80012a <__x86.get_pc_thunk.ax>
  8012ec:	05 14 9d 04 00       	add    $0x49d14,%eax
  8012f1:	fb                   	sti    
  8012f2:	90                   	nop
  8012f3:	5d                   	pop    %ebp
  8012f4:	c3                   	ret    

008012f5 <cli>:
  8012f5:	55                   	push   %ebp
  8012f6:	89 e5                	mov    %esp,%ebp
  8012f8:	e8 2d ee ff ff       	call   80012a <__x86.get_pc_thunk.ax>
  8012fd:	05 03 9d 04 00       	add    $0x49d03,%eax
  801302:	fa                   	cli    
  801303:	90                   	nop
  801304:	5d                   	pop    %ebp
  801305:	c3                   	ret    

00801306 <keyboard_event>:
  801306:	55                   	push   %ebp
  801307:	89 e5                	mov    %esp,%ebp
  801309:	53                   	push   %ebx
  80130a:	83 ec 10             	sub    $0x10,%esp
  80130d:	e8 1c ee ff ff       	call   80012e <__x86.get_pc_thunk.bx>
  801312:	81 c3 ee 9c 04 00    	add    $0x49cee,%ebx
  801318:	6a 60                	push   $0x60
  80131a:	e8 9e ff ff ff       	call   8012bd <in_byte>
  80131f:	83 c4 04             	add    $0x4,%esp
  801322:	0f b6 c0             	movzbl %al,%eax
  801325:	89 45 f4             	mov    %eax,-0xc(%ebp)
  801328:	8b 45 f4             	mov    -0xc(%ebp),%eax
  80132b:	83 e0 7f             	and    $0x7f,%eax
  80132e:	89 45 f0             	mov    %eax,-0x10(%ebp)
  801331:	c7 45 f8 00 00 00 00 	movl   $0x0,-0x8(%ebp)
  801338:	eb 4b                	jmp    801385 <keyboard_event+0x7f>
  80133a:	8b 45 f8             	mov    -0x8(%ebp),%eax
  80133d:	8b 84 83 40 67 ff ff 	mov    -0x98c0(%ebx,%eax,4),%eax
  801344:	3b 45 f0             	cmp    -0x10(%ebp),%eax
  801347:	75 38                	jne    801381 <keyboard_event+0x7b>
  801349:	8b 45 f4             	mov    -0xc(%ebp),%eax
  80134c:	25 80 00 00 00       	and    $0x80,%eax
  801351:	85 c0                	test   %eax,%eax
  801353:	74 10                	je     801365 <keyboard_event+0x5f>
  801355:	8b 45 f8             	mov    -0x8(%ebp),%eax
  801358:	c7 84 83 00 10 01 00 	movl   $0x2,0x11000(%ebx,%eax,4)
  80135f:	02 00 00 00 
  801363:	eb 1c                	jmp    801381 <keyboard_event+0x7b>
  801365:	8b 45 f8             	mov    -0x8(%ebp),%eax
  801368:	8b 84 83 00 10 01 00 	mov    0x11000(%ebx,%eax,4),%eax
  80136f:	85 c0                	test   %eax,%eax
  801371:	75 0e                	jne    801381 <keyboard_event+0x7b>
  801373:	8b 45 f8             	mov    -0x8(%ebp),%eax
  801376:	c7 84 83 00 10 01 00 	movl   $0x3,0x11000(%ebx,%eax,4)
  80137d:	03 00 00 00 
  801381:	83 45 f8 01          	addl   $0x1,-0x8(%ebp)
  801385:	83 7d f8 11          	cmpl   $0x11,-0x8(%ebp)
  801389:	7e af                	jle    80133a <keyboard_event+0x34>
  80138b:	90                   	nop
  80138c:	8b 5d fc             	mov    -0x4(%ebp),%ebx
  80138f:	c9                   	leave  
  801390:	c3                   	ret    

00801391 <get_keycode>:
  801391:	55                   	push   %ebp
  801392:	89 e5                	mov    %esp,%ebp
  801394:	53                   	push   %ebx
  801395:	83 ec 04             	sub    $0x4,%esp
  801398:	e8 91 ed ff ff       	call   80012e <__x86.get_pc_thunk.bx>
  80139d:	81 c3 63 9c 04 00    	add    $0x49c63,%ebx
  8013a3:	83 7d 08 00          	cmpl   $0x0,0x8(%ebp)
  8013a7:	78 06                	js     8013af <get_keycode+0x1e>
  8013a9:	83 7d 08 11          	cmpl   $0x11,0x8(%ebp)
  8013ad:	7e 34                	jle    8013e3 <get_keycode+0x52>
  8013af:	e8 41 ff ff ff       	call   8012f5 <cli>
  8013b4:	83 ec 0c             	sub    $0xc,%esp
  8013b7:	8d 83 88 67 ff ff    	lea    -0x9878(%ebx),%eax
  8013bd:	50                   	push   %eax
  8013be:	8d 83 0c 68 ff ff    	lea    -0x97f4(%ebx),%eax
  8013c4:	50                   	push   %eax
  8013c5:	6a 22                	push   $0x22
  8013c7:	8d 83 a6 67 ff ff    	lea    -0x985a(%ebx),%eax
  8013cd:	50                   	push   %eax
  8013ce:	8d 83 c4 67 ff ff    	lea    -0x983c(%ebx),%eax
  8013d4:	50                   	push   %eax
  8013d5:	e8 36 0f 03 00       	call   832310 <printf>
  8013da:	83 c4 20             	add    $0x20,%esp
  8013dd:	b8 01 00 00 00       	mov    $0x1,%eax
  8013e2:	82 8b 45 08 8b 84 83 	orb    $0x83,-0x7b74f7bb(%ebx)
  8013e9:	40                   	inc    %eax
  8013ea:	67 ff                	addr16 (bad) 
  8013ec:	ff 8b 5d fc c9 c3    	decl   -0x3c3603a3(%ebx)

008013f2 <query_key>:
  8013f2:	55                   	push   %ebp
  8013f3:	89 e5                	mov    %esp,%ebp
  8013f5:	53                   	push   %ebx
  8013f6:	83 ec 04             	sub    $0x4,%esp
  8013f9:	e8 30 ed ff ff       	call   80012e <__x86.get_pc_thunk.bx>
  8013fe:	81 c3 02 9c 04 00    	add    $0x49c02,%ebx
  801404:	83 7d 08 00          	cmpl   $0x0,0x8(%ebp)
  801408:	78 06                	js     801410 <query_key+0x1e>
  80140a:	83 7d 08 11          	cmpl   $0x11,0x8(%ebp)
  80140e:	7e 34                	jle    801444 <query_key+0x52>
  801410:	e8 e0 fe ff ff       	call   8012f5 <cli>
  801415:	83 ec 0c             	sub    $0xc,%esp
  801418:	8d 83 88 67 ff ff    	lea    -0x9878(%ebx),%eax
  80141e:	50                   	push   %eax
  80141f:	8d 83 18 68 ff ff    	lea    -0x97e8(%ebx),%eax
  801425:	50                   	push   %eax
  801426:	6a 28                	push   $0x28
  801428:	8d 83 a6 67 ff ff    	lea    -0x985a(%ebx),%eax
  80142e:	50                   	push   %eax
  80142f:	8d 83 c4 67 ff ff    	lea    -0x983c(%ebx),%eax
  801435:	50                   	push   %eax
  801436:	e8 d5 0e 03 00       	call   832310 <printf>
  80143b:	83 c4 20             	add    $0x20,%esp
  80143e:	b8 01 00 00 00       	mov    $0x1,%eax
  801443:	82 8b 45 08 8b 84 83 	orb    $0x83,-0x7b74f7bb(%ebx)
  80144a:	00 10                	add    %dl,(%eax)
  80144c:	01 00                	add    %eax,(%eax)
  80144e:	8b 5d fc             	mov    -0x4(%ebp),%ebx
  801451:	c9                   	leave  
  801452:	c3                   	ret    

00801453 <release_key>:
  801453:	55                   	push   %ebp
  801454:	89 e5                	mov    %esp,%ebp
  801456:	53                   	push   %ebx
  801457:	83 ec 04             	sub    $0x4,%esp
  80145a:	e8 cf ec ff ff       	call   80012e <__x86.get_pc_thunk.bx>
  80145f:	81 c3 a1 9b 04 00    	add    $0x49ba1,%ebx
  801465:	83 7d 08 00          	cmpl   $0x0,0x8(%ebp)
  801469:	78 06                	js     801471 <release_key+0x1e>
  80146b:	83 7d 08 11          	cmpl   $0x11,0x8(%ebp)
  80146f:	7e 34                	jle    8014a5 <release_key+0x52>
  801471:	e8 7f fe ff ff       	call   8012f5 <cli>
  801476:	83 ec 0c             	sub    $0xc,%esp
  801479:	8d 83 88 67 ff ff    	lea    -0x9878(%ebx),%eax
  80147f:	50                   	push   %eax
  801480:	8d 83 24 68 ff ff    	lea    -0x97dc(%ebx),%eax
  801486:	50                   	push   %eax
  801487:	6a 2e                	push   $0x2e
  801489:	8d 83 a6 67 ff ff    	lea    -0x985a(%ebx),%eax
  80148f:	50                   	push   %eax
  801490:	8d 83 c4 67 ff ff    	lea    -0x983c(%ebx),%eax
  801496:	50                   	push   %eax
  801497:	e8 74 0e 03 00       	call   832310 <printf>
  80149c:	83 c4 20             	add    $0x20,%esp
  80149f:	b8 01 00 00 00       	mov    $0x1,%eax
  8014a4:	82 8b 45 08 c7 84 83 	orb    $0x83,-0x7b38f7bb(%ebx)
  8014ab:	00 10                	add    %dl,(%eax)
  8014ad:	01 00                	add    %eax,(%eax)
  8014af:	01 00                	add    %eax,(%eax)
  8014b1:	00 00                	add    %al,(%eax)
  8014b3:	90                   	nop
  8014b4:	8b 5d fc             	mov    -0x4(%ebp),%ebx
  8014b7:	c9                   	leave  
  8014b8:	c3                   	ret    

008014b9 <clear_key>:
  8014b9:	55                   	push   %ebp
  8014ba:	89 e5                	mov    %esp,%ebp
  8014bc:	53                   	push   %ebx
  8014bd:	83 ec 04             	sub    $0x4,%esp
  8014c0:	e8 69 ec ff ff       	call   80012e <__x86.get_pc_thunk.bx>
  8014c5:	81 c3 3b 9b 04 00    	add    $0x49b3b,%ebx
  8014cb:	83 7d 08 00          	cmpl   $0x0,0x8(%ebp)
  8014cf:	78 06                	js     8014d7 <clear_key+0x1e>
  8014d1:	83 7d 08 11          	cmpl   $0x11,0x8(%ebp)
  8014d5:	7e 34                	jle    80150b <clear_key+0x52>
  8014d7:	e8 19 fe ff ff       	call   8012f5 <cli>
  8014dc:	83 ec 0c             	sub    $0xc,%esp
  8014df:	8d 83 88 67 ff ff    	lea    -0x9878(%ebx),%eax
  8014e5:	50                   	push   %eax
  8014e6:	8d 83 30 68 ff ff    	lea    -0x97d0(%ebx),%eax
  8014ec:	50                   	push   %eax
  8014ed:	6a 34                	push   $0x34
  8014ef:	8d 83 a6 67 ff ff    	lea    -0x985a(%ebx),%eax
  8014f5:	50                   	push   %eax
  8014f6:	8d 83 c4 67 ff ff    	lea    -0x983c(%ebx),%eax
  8014fc:	50                   	push   %eax
  8014fd:	e8 0e 0e 03 00       	call   832310 <printf>
  801502:	83 c4 20             	add    $0x20,%esp
  801505:	b8 01 00 00 00       	mov    $0x1,%eax
  80150a:	82 8b 45 08 c7 84 83 	orb    $0x83,-0x7b38f7bb(%ebx)
  801511:	00 10                	add    %dl,(%eax)
  801513:	01 00                	add    %eax,(%eax)
  801515:	00 00                	add    %al,(%eax)
  801517:	00 00                	add    %al,(%eax)
  801519:	90                   	nop
  80151a:	8b 5d fc             	mov    -0x4(%ebp),%ebx
  80151d:	c9                   	leave  
  80151e:	c3                   	ret    

0080151f <process_keys>:
  80151f:	55                   	push   %ebp
  801520:	89 e5                	mov    %esp,%ebp
  801522:	53                   	push   %ebx
  801523:	83 ec 14             	sub    $0x14,%esp
  801526:	e8 03 ec ff ff       	call   80012e <__x86.get_pc_thunk.bx>
  80152b:	81 c3 d5 9a 04 00    	add    $0x49ad5,%ebx
  801531:	e8 bf fd ff ff       	call   8012f5 <cli>
  801536:	c7 45 f4 00 00 00 00 	movl   $0x0,-0xc(%ebp)
  80153d:	eb 5d                	jmp    80159c <process_keys+0x7d>
  80153f:	83 ec 0c             	sub    $0xc,%esp
  801542:	ff 75 f4             	pushl  -0xc(%ebp)
  801545:	e8 47 fe ff ff       	call   801391 <get_keycode>
  80154a:	83 c4 10             	add    $0x10,%esp
  80154d:	89 45 f0             	mov    %eax,-0x10(%ebp)
  801550:	8b 45 f4             	mov    -0xc(%ebp),%eax
  801553:	8b 84 83 00 10 01 00 	mov    0x11000(%ebx,%eax,4),%eax
  80155a:	83 f8 03             	cmp    $0x3,%eax
  80155d:	75 15                	jne    801574 <process_keys+0x55>
  80155f:	83 ec 0c             	sub    $0xc,%esp
  801562:	ff 75 f0             	pushl  -0x10(%ebp)
  801565:	8b 45 08             	mov    0x8(%ebp),%eax
  801568:	ff d0                	call   *%eax
  80156a:	83 c4 10             	add    $0x10,%esp
  80156d:	b8 01 00 00 00       	mov    $0x1,%eax
  801572:	eb 38                	jmp    8015ac <process_keys+0x8d>
  801574:	8b 45 f4             	mov    -0xc(%ebp),%eax
  801577:	8b 84 83 00 10 01 00 	mov    0x11000(%ebx,%eax,4),%eax
  80157e:	83 f8 02             	cmp    $0x2,%eax
  801581:	75 15                	jne    801598 <process_keys+0x79>
  801583:	83 ec 0c             	sub    $0xc,%esp
  801586:	ff 75 f0             	pushl  -0x10(%ebp)
  801589:	8b 45 0c             	mov    0xc(%ebp),%eax
  80158c:	ff d0                	call   *%eax
  80158e:	83 c4 10             	add    $0x10,%esp
  801591:	b8 01 00 00 00       	mov    $0x1,%eax
  801596:	eb 14                	jmp    8015ac <process_keys+0x8d>
  801598:	83 45 f4 01          	addl   $0x1,-0xc(%ebp)
  80159c:	83 7d f4 11          	cmpl   $0x11,-0xc(%ebp)
  8015a0:	7e 9d                	jle    80153f <process_keys+0x20>
  8015a2:	e8 3d fd ff ff       	call   8012e4 <sti>
  8015a7:	b8 00 00 00 00       	mov    $0x0,%eax
  8015ac:	8b 5d fc             	mov    -0x4(%ebp),%ebx
  8015af:	c9                   	leave  
  8015b0:	c3                   	ret    

008015b1 <PAL_ItemSelectMenuUpdate>:
  8015b1:	55                   	push   %ebp
  8015b2:	89 e5                	mov    %esp,%ebp
  8015b4:	57                   	push   %edi
  8015b5:	56                   	push   %esi
  8015b6:	53                   	push   %ebx
  8015b7:	81 ec 2c 02 00 00    	sub    $0x22c,%esp
  8015bd:	e8 6c eb ff ff       	call   80012e <__x86.get_pc_thunk.bx>
  8015c2:	81 c3 3e 9a 04 00    	add    $0x49a3e,%ebx
  8015c8:	c7 c0 38 3a 86 00    	mov    $0x863a38,%eax
  8015ce:	8b 40 08             	mov    0x8(%eax),%eax
  8015d1:	83 e0 10             	and    $0x10,%eax
  8015d4:	85 c0                	test   %eax,%eax
  8015d6:	74 24                	je     8015fc <PAL_ItemSelectMenuUpdate+0x4b>
  8015d8:	c7 c0 cc 31 86 00    	mov    $0x8631cc,%eax
  8015de:	8b 00                	mov    (%eax),%eax
  8015e0:	c7 c2 cc 31 86 00    	mov    $0x8631cc,%edx
  8015e6:	8b 12                	mov    (%edx),%edx
  8015e8:	8b 92 c4 2a 00 00    	mov    0x2ac4(%edx),%edx
  8015ee:	83 ea 03             	sub    $0x3,%edx
  8015f1:	89 90 c4 2a 00 00    	mov    %edx,0x2ac4(%eax)
  8015f7:	e9 07 01 00 00       	jmp    801703 <PAL_ItemSelectMenuUpdate+0x152>
  8015fc:	c7 c0 38 3a 86 00    	mov    $0x863a38,%eax
  801602:	8b 40 08             	mov    0x8(%eax),%eax
  801605:	83 e0 04             	and    $0x4,%eax
  801608:	85 c0                	test   %eax,%eax
  80160a:	74 24                	je     801630 <PAL_ItemSelectMenuUpdate+0x7f>
  80160c:	c7 c0 cc 31 86 00    	mov    $0x8631cc,%eax
  801612:	8b 00                	mov    (%eax),%eax
  801614:	c7 c2 cc 31 86 00    	mov    $0x8631cc,%edx
  80161a:	8b 12                	mov    (%edx),%edx
  80161c:	8b 92 c4 2a 00 00    	mov    0x2ac4(%edx),%edx
  801622:	83 c2 03             	add    $0x3,%edx
  801625:	89 90 c4 2a 00 00    	mov    %edx,0x2ac4(%eax)
  80162b:	e9 d3 00 00 00       	jmp    801703 <PAL_ItemSelectMenuUpdate+0x152>
  801630:	c7 c0 38 3a 86 00    	mov    $0x863a38,%eax
  801636:	8b 40 08             	mov    0x8(%eax),%eax
  801639:	83 e0 08             	and    $0x8,%eax
  80163c:	85 c0                	test   %eax,%eax
  80163e:	74 1c                	je     80165c <PAL_ItemSelectMenuUpdate+0xab>
  801640:	c7 c0 cc 31 86 00    	mov    $0x8631cc,%eax
  801646:	8b 00                	mov    (%eax),%eax
  801648:	8b 90 c4 2a 00 00    	mov    0x2ac4(%eax),%edx
  80164e:	83 ea 01             	sub    $0x1,%edx
  801651:	89 90 c4 2a 00 00    	mov    %edx,0x2ac4(%eax)
  801657:	e9 a7 00 00 00       	jmp    801703 <PAL_ItemSelectMenuUpdate+0x152>
  80165c:	c7 c0 38 3a 86 00    	mov    $0x863a38,%eax
  801662:	8b 40 08             	mov    0x8(%eax),%eax
  801665:	83 e0 20             	and    $0x20,%eax
  801668:	85 c0                	test   %eax,%eax
  80166a:	74 19                	je     801685 <PAL_ItemSelectMenuUpdate+0xd4>
  80166c:	c7 c0 cc 31 86 00    	mov    $0x8631cc,%eax
  801672:	8b 00                	mov    (%eax),%eax
  801674:	8b 90 c4 2a 00 00    	mov    0x2ac4(%eax),%edx
  80167a:	83 c2 01             	add    $0x1,%edx
  80167d:	89 90 c4 2a 00 00    	mov    %edx,0x2ac4(%eax)
  801683:	eb 7e                	jmp    801703 <PAL_ItemSelectMenuUpdate+0x152>
  801685:	c7 c0 38 3a 86 00    	mov    $0x863a38,%eax
  80168b:	8b 40 08             	mov    0x8(%eax),%eax
  80168e:	83 e0 40             	and    $0x40,%eax
  801691:	85 c0                	test   %eax,%eax
  801693:	74 21                	je     8016b6 <PAL_ItemSelectMenuUpdate+0x105>
  801695:	c7 c0 cc 31 86 00    	mov    $0x8631cc,%eax
  80169b:	8b 00                	mov    (%eax),%eax
  80169d:	c7 c2 cc 31 86 00    	mov    $0x8631cc,%edx
  8016a3:	8b 12                	mov    (%edx),%edx
  8016a5:	8b 92 c4 2a 00 00    	mov    0x2ac4(%edx),%edx
  8016ab:	83 ea 15             	sub    $0x15,%edx
  8016ae:	89 90 c4 2a 00 00    	mov    %edx,0x2ac4(%eax)
  8016b4:	eb 4d                	jmp    801703 <PAL_ItemSelectMenuUpdate+0x152>
  8016b6:	c7 c0 38 3a 86 00    	mov    $0x863a38,%eax
  8016bc:	8b 40 08             	mov    0x8(%eax),%eax
  8016bf:	25 80 00 00 00       	and    $0x80,%eax
  8016c4:	85 c0                	test   %eax,%eax
  8016c6:	74 21                	je     8016e9 <PAL_ItemSelectMenuUpdate+0x138>
  8016c8:	c7 c0 cc 31 86 00    	mov    $0x8631cc,%eax
  8016ce:	8b 00                	mov    (%eax),%eax
  8016d0:	c7 c2 cc 31 86 00    	mov    $0x8631cc,%edx
  8016d6:	8b 12                	mov    (%edx),%edx
  8016d8:	8b 92 c4 2a 00 00    	mov    0x2ac4(%edx),%edx
  8016de:	83 c2 15             	add    $0x15,%edx
  8016e1:	89 90 c4 2a 00 00    	mov    %edx,0x2ac4(%eax)
  8016e7:	eb 1a                	jmp    801703 <PAL_ItemSelectMenuUpdate+0x152>
  8016e9:	c7 c0 38 3a 86 00    	mov    $0x863a38,%eax
  8016ef:	8b 40 08             	mov    0x8(%eax),%eax
  8016f2:	83 e0 01             	and    $0x1,%eax
  8016f5:	85 c0                	test   %eax,%eax
  8016f7:	74 0a                	je     801703 <PAL_ItemSelectMenuUpdate+0x152>
  8016f9:	b8 00 00 00 00       	mov    $0x0,%eax
  8016fe:	e9 f7 07 00 00       	jmp    801efa <PAL_ItemSelectMenuUpdate+0x949>
  801703:	c7 c0 cc 31 86 00    	mov    $0x8631cc,%eax
  801709:	8b 00                	mov    (%eax),%eax
  80170b:	8b 80 c4 2a 00 00    	mov    0x2ac4(%eax),%eax
  801711:	85 c0                	test   %eax,%eax
  801713:	79 14                	jns    801729 <PAL_ItemSelectMenuUpdate+0x178>
  801715:	c7 c0 cc 31 86 00    	mov    $0x8631cc,%eax
  80171b:	8b 00                	mov    (%eax),%eax
  80171d:	c7 80 c4 2a 00 00 00 	movl   $0x0,0x2ac4(%eax)
  801724:	00 00 00 
  801727:	eb 2f                	jmp    801758 <PAL_ItemSelectMenuUpdate+0x1a7>
  801729:	c7 c0 cc 31 86 00    	mov    $0x8631cc,%eax
  80172f:	8b 00                	mov    (%eax),%eax
  801731:	8b 90 c4 2a 00 00    	mov    0x2ac4(%eax),%edx
  801737:	8b 83 60 10 01 00    	mov    0x11060(%ebx),%eax
  80173d:	39 c2                	cmp    %eax,%edx
  80173f:	7c 17                	jl     801758 <PAL_ItemSelectMenuUpdate+0x1a7>
  801741:	c7 c0 cc 31 86 00    	mov    $0x8631cc,%eax
  801747:	8b 00                	mov    (%eax),%eax
  801749:	8b 93 60 10 01 00    	mov    0x11060(%ebx),%edx
  80174f:	83 ea 01             	sub    $0x1,%edx
  801752:	89 90 c4 2a 00 00    	mov    %edx,0x2ac4(%eax)
  801758:	83 ec 0c             	sub    $0xc,%esp
  80175b:	6a 00                	push   $0x0
  80175d:	6a 01                	push   $0x1
  80175f:	6a 11                	push   $0x11
  801761:	6a 06                	push   $0x6
  801763:	6a 02                	push   $0x2
  801765:	e8 b7 87 00 00       	call   809f21 <PAL_CreateBox>
  80176a:	83 c4 20             	add    $0x20,%esp
  80176d:	c7 c0 cc 31 86 00    	mov    $0x8631cc,%eax
  801773:	8b 00                	mov    (%eax),%eax
  801775:	8b 88 c4 2a 00 00    	mov    0x2ac4(%eax),%ecx
  80177b:	ba 56 55 55 55       	mov    $0x55555556,%edx
  801780:	89 c8                	mov    %ecx,%eax
  801782:	f7 ea                	imul   %edx
  801784:	89 c8                	mov    %ecx,%eax
  801786:	c1 f8 1f             	sar    $0x1f,%eax
  801789:	29 c2                	sub    %eax,%edx
  80178b:	89 d0                	mov    %edx,%eax
  80178d:	01 c0                	add    %eax,%eax
  80178f:	01 d0                	add    %edx,%eax
  801791:	83 e8 0c             	sub    $0xc,%eax
  801794:	89 45 e4             	mov    %eax,-0x1c(%ebp)
  801797:	83 7d e4 00          	cmpl   $0x0,-0x1c(%ebp)
  80179b:	79 07                	jns    8017a4 <PAL_ItemSelectMenuUpdate+0x1f3>
  80179d:	c7 45 e4 00 00 00 00 	movl   $0x0,-0x1c(%ebp)
  8017a4:	c7 45 e0 00 00 00 00 	movl   $0x0,-0x20(%ebp)
  8017ab:	e9 a2 03 00 00       	jmp    801b52 <PAL_ItemSelectMenuUpdate+0x5a1>
  8017b0:	c7 45 dc 00 00 00 00 	movl   $0x0,-0x24(%ebp)
  8017b7:	e9 88 03 00 00       	jmp    801b44 <PAL_ItemSelectMenuUpdate+0x593>
  8017bc:	c7 c0 cc 31 86 00    	mov    $0x8631cc,%eax
  8017c2:	8b 08                	mov    (%eax),%ecx
  8017c4:	8b 55 e4             	mov    -0x1c(%ebp),%edx
  8017c7:	89 d0                	mov    %edx,%eax
  8017c9:	01 c0                	add    %eax,%eax
  8017cb:	01 d0                	add    %edx,%eax
  8017cd:	01 c0                	add    %eax,%eax
  8017cf:	01 c8                	add    %ecx,%eax
  8017d1:	05 2c 47 00 00       	add    $0x472c,%eax
  8017d6:	0f b7 00             	movzwl (%eax),%eax
  8017d9:	66 89 45 ce          	mov    %ax,-0x32(%ebp)
  8017dd:	c6 45 db 4f          	movb   $0x4f,-0x25(%ebp)
  8017e1:	81 7d e4 ff 00 00 00 	cmpl   $0xff,-0x1c(%ebp)
  8017e8:	7f 07                	jg     8017f1 <PAL_ItemSelectMenuUpdate+0x240>
  8017ea:	66 83 7d ce 00       	cmpw   $0x0,-0x32(%ebp)
  8017ef:	75 0c                	jne    8017fd <PAL_ItemSelectMenuUpdate+0x24c>
  8017f1:	c7 45 e0 07 00 00 00 	movl   $0x7,-0x20(%ebp)
  8017f8:	e9 51 03 00 00       	jmp    801b4e <PAL_ItemSelectMenuUpdate+0x59d>
  8017fd:	c7 c0 cc 31 86 00    	mov    $0x8631cc,%eax
  801803:	8b 00                	mov    (%eax),%eax
  801805:	8b 80 c4 2a 00 00    	mov    0x2ac4(%eax),%eax
  80180b:	3b 45 e4             	cmp    -0x1c(%ebp),%eax
  80180e:	0f 85 d8 00 00 00    	jne    8018ec <PAL_ItemSelectMenuUpdate+0x33b>
  801814:	c7 c0 cc 31 86 00    	mov    $0x8631cc,%eax
  80181a:	8b 08                	mov    (%eax),%ecx
  80181c:	0f b7 55 ce          	movzwl -0x32(%ebp),%edx
  801820:	89 d0                	mov    %edx,%eax
  801822:	01 c0                	add    %eax,%eax
  801824:	01 d0                	add    %edx,%eax
  801826:	c1 e0 02             	shl    $0x2,%eax
  801829:	01 c8                	add    %ecx,%eax
  80182b:	05 92 09 00 00       	add    $0x992,%eax
  801830:	0f b7 10             	movzwl (%eax),%edx
  801833:	0f b7 83 64 10 01 00 	movzwl 0x11064(%ebx),%eax
  80183a:	21 d0                	and    %edx,%eax
  80183c:	66 85 c0             	test   %ax,%ax
  80183f:	74 41                	je     801882 <PAL_ItemSelectMenuUpdate+0x2d1>
  801841:	c7 c0 cc 31 86 00    	mov    $0x8631cc,%eax
  801847:	8b 08                	mov    (%eax),%ecx
  801849:	8b 55 e4             	mov    -0x1c(%ebp),%edx
  80184c:	89 d0                	mov    %edx,%eax
  80184e:	01 c0                	add    %eax,%eax
  801850:	01 d0                	add    %edx,%eax
  801852:	01 c0                	add    %eax,%eax
  801854:	01 c8                	add    %ecx,%eax
  801856:	05 2e 47 00 00       	add    $0x472e,%eax
  80185b:	0f b7 00             	movzwl (%eax),%eax
  80185e:	89 c6                	mov    %eax,%esi
  801860:	c7 c0 cc 31 86 00    	mov    $0x8631cc,%eax
  801866:	8b 08                	mov    (%eax),%ecx
  801868:	8b 55 e4             	mov    -0x1c(%ebp),%edx
  80186b:	89 d0                	mov    %edx,%eax
  80186d:	01 c0                	add    %eax,%eax
  80186f:	01 d0                	add    %edx,%eax
  801871:	01 c0                	add    %eax,%eax
  801873:	01 c8                	add    %ecx,%eax
  801875:	05 30 47 00 00       	add    $0x4730,%eax
  80187a:	0f b7 00             	movzwl (%eax),%eax
  80187d:	66 39 c6             	cmp    %ax,%si
  801880:	7f 09                	jg     80188b <PAL_ItemSelectMenuUpdate+0x2da>
  801882:	c6 45 db 1f          	movb   $0x1f,-0x25(%ebp)
  801886:	e9 fb 00 00 00       	jmp    801986 <PAL_ItemSelectMenuUpdate+0x3d5>
  80188b:	c7 c0 cc 31 86 00    	mov    $0x8631cc,%eax
  801891:	8b 08                	mov    (%eax),%ecx
  801893:	8b 55 e4             	mov    -0x1c(%ebp),%edx
  801896:	89 d0                	mov    %edx,%eax
  801898:	01 c0                	add    %eax,%eax
  80189a:	01 d0                	add    %edx,%eax
  80189c:	01 c0                	add    %eax,%eax
  80189e:	01 c8                	add    %ecx,%eax
  8018a0:	05 2e 47 00 00       	add    $0x472e,%eax
  8018a5:	0f b7 00             	movzwl (%eax),%eax
  8018a8:	66 85 c0             	test   %ax,%ax
  8018ab:	75 09                	jne    8018b6 <PAL_ItemSelectMenuUpdate+0x305>
  8018ad:	c6 45 db c8          	movb   $0xc8,-0x25(%ebp)
  8018b1:	e9 d0 00 00 00       	jmp    801986 <PAL_ItemSelectMenuUpdate+0x3d5>
  8018b6:	e8 ad f9 ff ff       	call   801268 <SDL_GetTicks>
  8018bb:	ba 1f 85 eb 51       	mov    $0x51eb851f,%edx
  8018c0:	f7 e2                	mul    %edx
  8018c2:	89 d1                	mov    %edx,%ecx
  8018c4:	c1 e9 05             	shr    $0x5,%ecx
  8018c7:	ba ab aa aa aa       	mov    $0xaaaaaaab,%edx
  8018cc:	89 c8                	mov    %ecx,%eax
  8018ce:	f7 e2                	mul    %edx
  8018d0:	c1 ea 02             	shr    $0x2,%edx
  8018d3:	89 d0                	mov    %edx,%eax
  8018d5:	01 c0                	add    %eax,%eax
  8018d7:	01 d0                	add    %edx,%eax
  8018d9:	01 c0                	add    %eax,%eax
  8018db:	29 c1                	sub    %eax,%ecx
  8018dd:	89 ca                	mov    %ecx,%edx
  8018df:	89 d0                	mov    %edx,%eax
  8018e1:	83 e8 07             	sub    $0x7,%eax
  8018e4:	88 45 db             	mov    %al,-0x25(%ebp)
  8018e7:	e9 9a 00 00 00       	jmp    801986 <PAL_ItemSelectMenuUpdate+0x3d5>
  8018ec:	c7 c0 cc 31 86 00    	mov    $0x8631cc,%eax
  8018f2:	8b 08                	mov    (%eax),%ecx
  8018f4:	0f b7 55 ce          	movzwl -0x32(%ebp),%edx
  8018f8:	89 d0                	mov    %edx,%eax
  8018fa:	01 c0                	add    %eax,%eax
  8018fc:	01 d0                	add    %edx,%eax
  8018fe:	c1 e0 02             	shl    $0x2,%eax
  801901:	01 c8                	add    %ecx,%eax
  801903:	05 92 09 00 00       	add    $0x992,%eax
  801908:	0f b7 10             	movzwl (%eax),%edx
  80190b:	0f b7 83 64 10 01 00 	movzwl 0x11064(%ebx),%eax
  801912:	21 d0                	and    %edx,%eax
  801914:	66 85 c0             	test   %ax,%ax
  801917:	74 41                	je     80195a <PAL_ItemSelectMenuUpdate+0x3a9>
  801919:	c7 c0 cc 31 86 00    	mov    $0x8631cc,%eax
  80191f:	8b 08                	mov    (%eax),%ecx
  801921:	8b 55 e4             	mov    -0x1c(%ebp),%edx
  801924:	89 d0                	mov    %edx,%eax
  801926:	01 c0                	add    %eax,%eax
  801928:	01 d0                	add    %edx,%eax
  80192a:	01 c0                	add    %eax,%eax
  80192c:	01 c8                	add    %ecx,%eax
  80192e:	05 2e 47 00 00       	add    $0x472e,%eax
  801933:	0f b7 00             	movzwl (%eax),%eax
  801936:	89 c6                	mov    %eax,%esi
  801938:	c7 c0 cc 31 86 00    	mov    $0x8631cc,%eax
  80193e:	8b 08                	mov    (%eax),%ecx
  801940:	8b 55 e4             	mov    -0x1c(%ebp),%edx
  801943:	89 d0                	mov    %edx,%eax
  801945:	01 c0                	add    %eax,%eax
  801947:	01 d0                	add    %edx,%eax
  801949:	01 c0                	add    %eax,%eax
  80194b:	01 c8                	add    %ecx,%eax
  80194d:	05 30 47 00 00       	add    $0x4730,%eax
  801952:	0f b7 00             	movzwl (%eax),%eax
  801955:	66 39 c6             	cmp    %ax,%si
  801958:	7f 06                	jg     801960 <PAL_ItemSelectMenuUpdate+0x3af>
  80195a:	c6 45 db 1c          	movb   $0x1c,-0x25(%ebp)
  80195e:	eb 26                	jmp    801986 <PAL_ItemSelectMenuUpdate+0x3d5>
  801960:	c7 c0 cc 31 86 00    	mov    $0x8631cc,%eax
  801966:	8b 08                	mov    (%eax),%ecx
  801968:	8b 55 e4             	mov    -0x1c(%ebp),%edx
  80196b:	89 d0                	mov    %edx,%eax
  80196d:	01 c0                	add    %eax,%eax
  80196f:	01 d0                	add    %edx,%eax
  801971:	01 c0                	add    %eax,%eax
  801973:	01 c8                	add    %ecx,%eax
  801975:	05 2e 47 00 00       	add    $0x472e,%eax
  80197a:	0f b7 00             	movzwl (%eax),%eax
  80197d:	66 85 c0             	test   %ax,%ax
  801980:	75 04                	jne    801986 <PAL_ItemSelectMenuUpdate+0x3d5>
  801982:	c6 45 db c8          	movb   $0xc8,-0x25(%ebp)
  801986:	0f b6 75 db          	movzbl -0x25(%ebp),%esi
  80198a:	8b 45 e0             	mov    -0x20(%ebp),%eax
  80198d:	89 c2                	mov    %eax,%edx
  80198f:	89 d0                	mov    %edx,%eax
  801991:	c1 e0 03             	shl    $0x3,%eax
  801994:	01 d0                	add    %edx,%eax
  801996:	01 c0                	add    %eax,%eax
  801998:	83 c0 0c             	add    $0xc,%eax
  80199b:	0f b7 c0             	movzwl %ax,%eax
  80199e:	c1 e0 10             	shl    $0x10,%eax
  8019a1:	89 c1                	mov    %eax,%ecx
  8019a3:	8b 45 dc             	mov    -0x24(%ebp),%eax
  8019a6:	89 c2                	mov    %eax,%edx
  8019a8:	89 d0                	mov    %edx,%eax
  8019aa:	c1 e0 02             	shl    $0x2,%eax
  8019ad:	01 d0                	add    %edx,%eax
  8019af:	8d 14 85 00 00 00 00 	lea    0x0(,%eax,4),%edx
  8019b6:	01 d0                	add    %edx,%eax
  8019b8:	c1 e0 02             	shl    $0x2,%eax
  8019bb:	83 c0 0f             	add    $0xf,%eax
  8019be:	0f b7 c0             	movzwl %ax,%eax
  8019c1:	89 cf                	mov    %ecx,%edi
  8019c3:	09 c7                	or     %eax,%edi
  8019c5:	0f b7 45 ce          	movzwl -0x32(%ebp),%eax
  8019c9:	83 ec 0c             	sub    $0xc,%esp
  8019cc:	50                   	push   %eax
  8019cd:	e8 e5 3f 00 00       	call   8059b7 <PAL_GetWord>
  8019d2:	83 c4 10             	add    $0x10,%esp
  8019d5:	83 ec 0c             	sub    $0xc,%esp
  8019d8:	6a 00                	push   $0x0
  8019da:	6a 01                	push   $0x1
  8019dc:	56                   	push   %esi
  8019dd:	57                   	push   %edi
  8019de:	50                   	push   %eax
  8019df:	e8 ac 41 00 00       	call   805b90 <PAL_DrawText>
  8019e4:	83 c4 20             	add    $0x20,%esp
  8019e7:	c7 c0 cc 31 86 00    	mov    $0x8631cc,%eax
  8019ed:	8b 00                	mov    (%eax),%eax
  8019ef:	8b 80 c4 2a 00 00    	mov    0x2ac4(%eax),%eax
  8019f5:	3b 45 e4             	cmp    -0x1c(%ebp),%eax
  8019f8:	75 67                	jne    801a61 <PAL_ItemSelectMenuUpdate+0x4b0>
  8019fa:	8b 45 e0             	mov    -0x20(%ebp),%eax
  8019fd:	89 c2                	mov    %eax,%edx
  8019ff:	89 d0                	mov    %edx,%eax
  801a01:	c1 e0 03             	shl    $0x3,%eax
  801a04:	01 d0                	add    %edx,%eax
  801a06:	01 c0                	add    %eax,%eax
  801a08:	83 c0 16             	add    $0x16,%eax
  801a0b:	0f b7 c0             	movzwl %ax,%eax
  801a0e:	c1 e0 10             	shl    $0x10,%eax
  801a11:	89 c1                	mov    %eax,%ecx
  801a13:	8b 45 dc             	mov    -0x24(%ebp),%eax
  801a16:	89 c2                	mov    %eax,%edx
  801a18:	89 d0                	mov    %edx,%eax
  801a1a:	c1 e0 02             	shl    $0x2,%eax
  801a1d:	01 d0                	add    %edx,%eax
  801a1f:	8d 14 85 00 00 00 00 	lea    0x0(,%eax,4),%edx
  801a26:	01 d0                	add    %edx,%eax
  801a28:	c1 e0 02             	shl    $0x2,%eax
  801a2b:	83 c0 28             	add    $0x28,%eax
  801a2e:	0f b7 c0             	movzwl %ax,%eax
  801a31:	89 cf                	mov    %ecx,%edi
  801a33:	09 c7                	or     %eax,%edi
  801a35:	c7 c0 60 d0 85 00    	mov    $0x85d060,%eax
  801a3b:	8b 30                	mov    (%eax),%esi
  801a3d:	c7 c0 28 cb 85 00    	mov    $0x85cb28,%eax
  801a43:	8b 00                	mov    (%eax),%eax
  801a45:	83 ec 08             	sub    $0x8,%esp
  801a48:	6a 45                	push   $0x45
  801a4a:	50                   	push   %eax
  801a4b:	e8 a4 df 02 00       	call   82f9f4 <PAL_SpriteGetFrame>
  801a50:	83 c4 10             	add    $0x10,%esp
  801a53:	83 ec 04             	sub    $0x4,%esp
  801a56:	57                   	push   %edi
  801a57:	56                   	push   %esi
  801a58:	50                   	push   %eax
  801a59:	e8 1c d7 02 00       	call   82f17a <PAL_RLEBlitToSurface>
  801a5e:	83 c4 10             	add    $0x10,%esp
  801a61:	c7 c0 cc 31 86 00    	mov    $0x8631cc,%eax
  801a67:	8b 08                	mov    (%eax),%ecx
  801a69:	8b 55 e4             	mov    -0x1c(%ebp),%edx
  801a6c:	89 d0                	mov    %edx,%eax
  801a6e:	01 c0                	add    %eax,%eax
  801a70:	01 d0                	add    %edx,%eax
  801a72:	01 c0                	add    %eax,%eax
  801a74:	01 c8                	add    %ecx,%eax
  801a76:	05 2e 47 00 00       	add    $0x472e,%eax
  801a7b:	0f b7 00             	movzwl (%eax),%eax
  801a7e:	0f bf c8             	movswl %ax,%ecx
  801a81:	c7 c0 cc 31 86 00    	mov    $0x8631cc,%eax
  801a87:	8b 30                	mov    (%eax),%esi
  801a89:	8b 55 e4             	mov    -0x1c(%ebp),%edx
  801a8c:	89 d0                	mov    %edx,%eax
  801a8e:	01 c0                	add    %eax,%eax
  801a90:	01 d0                	add    %edx,%eax
  801a92:	01 c0                	add    %eax,%eax
  801a94:	01 f0                	add    %esi,%eax
  801a96:	05 30 47 00 00       	add    $0x4730,%eax
  801a9b:	0f b7 00             	movzwl (%eax),%eax
  801a9e:	98                   	cwtl   
  801a9f:	29 c1                	sub    %eax,%ecx
  801aa1:	89 c8                	mov    %ecx,%eax
  801aa3:	83 f8 01             	cmp    $0x1,%eax
  801aa6:	0f 8e 90 00 00 00    	jle    801b3c <PAL_ItemSelectMenuUpdate+0x58b>
  801aac:	8b 45 e0             	mov    -0x20(%ebp),%eax
  801aaf:	89 c2                	mov    %eax,%edx
  801ab1:	89 d0                	mov    %edx,%eax
  801ab3:	c1 e0 03             	shl    $0x3,%eax
  801ab6:	01 d0                	add    %edx,%eax
  801ab8:	01 c0                	add    %eax,%eax
  801aba:	83 c0 11             	add    $0x11,%eax
  801abd:	0f b7 c0             	movzwl %ax,%eax
  801ac0:	c1 e0 10             	shl    $0x10,%eax
  801ac3:	89 c1                	mov    %eax,%ecx
  801ac5:	8b 45 dc             	mov    -0x24(%ebp),%eax
  801ac8:	89 c2                	mov    %eax,%edx
  801aca:	89 d0                	mov    %edx,%eax
  801acc:	c1 e0 02             	shl    $0x2,%eax
  801acf:	01 d0                	add    %edx,%eax
  801ad1:	8d 14 85 00 00 00 00 	lea    0x0(,%eax,4),%edx
  801ad8:	01 d0                	add    %edx,%eax
  801ada:	c1 e0 02             	shl    $0x2,%eax
  801add:	83 c0 60             	add    $0x60,%eax
  801ae0:	0f b7 c0             	movzwl %ax,%eax
  801ae3:	09 c1                	or     %eax,%ecx
  801ae5:	c7 c0 cc 31 86 00    	mov    $0x8631cc,%eax
  801aeb:	8b 30                	mov    (%eax),%esi
  801aed:	8b 55 e4             	mov    -0x1c(%ebp),%edx
  801af0:	89 d0                	mov    %edx,%eax
  801af2:	01 c0                	add    %eax,%eax
  801af4:	01 d0                	add    %edx,%eax
  801af6:	01 c0                	add    %eax,%eax
  801af8:	01 f0                	add    %esi,%eax
  801afa:	05 2e 47 00 00       	add    $0x472e,%eax
  801aff:	0f b7 00             	movzwl (%eax),%eax
  801b02:	0f b7 f0             	movzwl %ax,%esi
  801b05:	c7 c0 cc 31 86 00    	mov    $0x8631cc,%eax
  801b0b:	8b 38                	mov    (%eax),%edi
  801b0d:	8b 55 e4             	mov    -0x1c(%ebp),%edx
  801b10:	89 d0                	mov    %edx,%eax
  801b12:	01 c0                	add    %eax,%eax
  801b14:	01 d0                	add    %edx,%eax
  801b16:	01 c0                	add    %eax,%eax
  801b18:	01 f8                	add    %edi,%eax
  801b1a:	05 30 47 00 00       	add    $0x4730,%eax
  801b1f:	0f b7 00             	movzwl (%eax),%eax
  801b22:	0f b7 c0             	movzwl %ax,%eax
  801b25:	29 c6                	sub    %eax,%esi
  801b27:	89 f0                	mov    %esi,%eax
  801b29:	83 ec 0c             	sub    $0xc,%esp
  801b2c:	6a 02                	push   $0x2
  801b2e:	6a 02                	push   $0x2
  801b30:	51                   	push   %ecx
  801b31:	6a 02                	push   $0x2
  801b33:	50                   	push   %eax
  801b34:	e8 66 92 00 00       	call   80ad9f <PAL_DrawNumber>
  801b39:	83 c4 20             	add    $0x20,%esp
  801b3c:	83 45 e4 01          	addl   $0x1,-0x1c(%ebp)
  801b40:	83 45 dc 01          	addl   $0x1,-0x24(%ebp)
  801b44:	83 7d dc 02          	cmpl   $0x2,-0x24(%ebp)
  801b48:	0f 8e 6e fc ff ff    	jle    8017bc <PAL_ItemSelectMenuUpdate+0x20b>
  801b4e:	83 45 e0 01          	addl   $0x1,-0x20(%ebp)
  801b52:	83 7d e0 06          	cmpl   $0x6,-0x20(%ebp)
  801b56:	0f 8e 54 fc ff ff    	jle    8017b0 <PAL_ItemSelectMenuUpdate+0x1ff>
  801b5c:	c7 c0 60 d0 85 00    	mov    $0x85d060,%eax
  801b62:	8b 30                	mov    (%eax),%esi
  801b64:	c7 c0 28 cb 85 00    	mov    $0x85cb28,%eax
  801b6a:	8b 00                	mov    (%eax),%eax
  801b6c:	83 ec 08             	sub    $0x8,%esp
  801b6f:	6a 46                	push   $0x46
  801b71:	50                   	push   %eax
  801b72:	e8 7d de 02 00       	call   82f9f4 <PAL_SpriteGetFrame>
  801b77:	83 c4 10             	add    $0x10,%esp
  801b7a:	83 ec 04             	sub    $0x4,%esp
  801b7d:	68 05 00 8c 00       	push   $0x8c0005
  801b82:	56                   	push   %esi
  801b83:	50                   	push   %eax
  801b84:	e8 f1 d5 02 00       	call   82f17a <PAL_RLEBlitToSurface>
  801b89:	83 c4 10             	add    $0x10,%esp
  801b8c:	c7 c0 cc 31 86 00    	mov    $0x8631cc,%eax
  801b92:	8b 08                	mov    (%eax),%ecx
  801b94:	c7 c0 cc 31 86 00    	mov    $0x8631cc,%eax
  801b9a:	8b 00                	mov    (%eax),%eax
  801b9c:	8b 90 c4 2a 00 00    	mov    0x2ac4(%eax),%edx
  801ba2:	89 d0                	mov    %edx,%eax
  801ba4:	01 c0                	add    %eax,%eax
  801ba6:	01 d0                	add    %edx,%eax
  801ba8:	01 c0                	add    %eax,%eax
  801baa:	01 c8                	add    %ecx,%eax
  801bac:	05 2c 47 00 00       	add    $0x472c,%eax
  801bb1:	0f b7 00             	movzwl (%eax),%eax
  801bb4:	66 89 45 ce          	mov    %ax,-0x32(%ebp)
  801bb8:	c7 c0 cc 31 86 00    	mov    $0x8631cc,%eax
  801bbe:	8b 08                	mov    (%eax),%ecx
  801bc0:	0f b7 55 ce          	movzwl -0x32(%ebp),%edx
  801bc4:	89 d0                	mov    %edx,%eax
  801bc6:	01 c0                	add    %eax,%eax
  801bc8:	01 d0                	add    %edx,%eax
  801bca:	c1 e0 02             	shl    $0x2,%eax
  801bcd:	01 c8                	add    %ecx,%eax
  801bcf:	05 88 09 00 00       	add    $0x988,%eax
  801bd4:	0f b7 10             	movzwl (%eax),%edx
  801bd7:	0f b7 83 40 04 00 00 	movzwl 0x440(%ebx),%eax
  801bde:	66 39 c2             	cmp    %ax,%dx
  801be1:	74 78                	je     801c5b <PAL_ItemSelectMenuUpdate+0x6aa>
  801be3:	c7 c0 cc 31 86 00    	mov    $0x8631cc,%eax
  801be9:	8b 00                	mov    (%eax),%eax
  801beb:	8b 48 08             	mov    0x8(%eax),%ecx
  801bee:	c7 c0 cc 31 86 00    	mov    $0x8631cc,%eax
  801bf4:	8b 30                	mov    (%eax),%esi
  801bf6:	0f b7 55 ce          	movzwl -0x32(%ebp),%edx
  801bfa:	89 d0                	mov    %edx,%eax
  801bfc:	01 c0                	add    %eax,%eax
  801bfe:	01 d0                	add    %edx,%eax
  801c00:	c1 e0 02             	shl    $0x2,%eax
  801c03:	01 f0                	add    %esi,%eax
  801c05:	05 88 09 00 00       	add    $0x988,%eax
  801c0a:	0f b7 00             	movzwl (%eax),%eax
  801c0d:	0f b7 c0             	movzwl %ax,%eax
  801c10:	51                   	push   %ecx
  801c11:	50                   	push   %eax
  801c12:	68 00 08 00 00       	push   $0x800
  801c17:	8d 83 80 10 01 00    	lea    0x11080(%ebx),%eax
  801c1d:	50                   	push   %eax
  801c1e:	e8 58 df 02 00       	call   82fb7b <PAL_MKFReadChunk>
  801c23:	83 c4 10             	add    $0x10,%esp
  801c26:	85 c0                	test   %eax,%eax
  801c28:	7e 28                	jle    801c52 <PAL_ItemSelectMenuUpdate+0x6a1>
  801c2a:	c7 c0 cc 31 86 00    	mov    $0x8631cc,%eax
  801c30:	8b 08                	mov    (%eax),%ecx
  801c32:	0f b7 55 ce          	movzwl -0x32(%ebp),%edx
  801c36:	89 d0                	mov    %edx,%eax
  801c38:	01 c0                	add    %eax,%eax
  801c3a:	01 d0                	add    %edx,%eax
  801c3c:	c1 e0 02             	shl    $0x2,%eax
  801c3f:	01 c8                	add    %ecx,%eax
  801c41:	05 88 09 00 00       	add    $0x988,%eax
  801c46:	0f b7 00             	movzwl (%eax),%eax
  801c49:	66 89 83 40 04 00 00 	mov    %ax,0x440(%ebx)
  801c50:	eb 09                	jmp    801c5b <PAL_ItemSelectMenuUpdate+0x6aa>
  801c52:	66 c7 83 40 04 00 00 	movw   $0xffff,0x440(%ebx)
  801c59:	ff ff 
  801c5b:	0f b7 83 40 04 00 00 	movzwl 0x440(%ebx),%eax
  801c62:	66 83 f8 ff          	cmp    $0xffff,%ax
  801c66:	74 20                	je     801c88 <PAL_ItemSelectMenuUpdate+0x6d7>
  801c68:	c7 c0 60 d0 85 00    	mov    $0x85d060,%eax
  801c6e:	8b 00                	mov    (%eax),%eax
  801c70:	83 ec 04             	sub    $0x4,%esp
  801c73:	68 0c 00 94 00       	push   $0x94000c
  801c78:	50                   	push   %eax
  801c79:	8d 83 80 10 01 00    	lea    0x11080(%ebx),%eax
  801c7f:	50                   	push   %eax
  801c80:	e8 f5 d4 02 00       	call   82f17a <PAL_RLEBlitToSurface>
  801c85:	83 c4 10             	add    $0x10,%esp
  801c88:	8b 83 68 10 01 00    	mov    0x11068(%ebx),%eax
  801c8e:	85 c0                	test   %eax,%eax
  801c90:	0f 85 ba 00 00 00    	jne    801d50 <PAL_ItemSelectMenuUpdate+0x79f>
  801c96:	c7 c0 cc 31 86 00    	mov    $0x8631cc,%eax
  801c9c:	8b 00                	mov    (%eax),%eax
  801c9e:	8b 80 2c 4d 00 00    	mov    0x4d2c(%eax),%eax
  801ca4:	85 c0                	test   %eax,%eax
  801ca6:	0f 84 a4 00 00 00    	je     801d50 <PAL_ItemSelectMenuUpdate+0x79f>
  801cac:	0f b7 55 ce          	movzwl -0x32(%ebp),%edx
  801cb0:	c7 c0 cc 31 86 00    	mov    $0x8631cc,%eax
  801cb6:	8b 00                	mov    (%eax),%eax
  801cb8:	8b 80 2c 4d 00 00    	mov    0x4d2c(%eax),%eax
  801cbe:	83 ec 08             	sub    $0x8,%esp
  801cc1:	52                   	push   %edx
  801cc2:	50                   	push   %eax
  801cc3:	e8 d8 93 00 00       	call   80b0a0 <PAL_GetObjectDesc>
  801cc8:	83 c4 10             	add    $0x10,%esp
  801ccb:	89 45 d0             	mov    %eax,-0x30(%ebp)
  801cce:	83 7d d0 00          	cmpl   $0x0,-0x30(%ebp)
  801cd2:	74 7c                	je     801d50 <PAL_ItemSelectMenuUpdate+0x79f>
  801cd4:	c7 45 dc 96 00 00 00 	movl   $0x96,-0x24(%ebp)
  801cdb:	83 ec 08             	sub    $0x8,%esp
  801cde:	ff 75 d0             	pushl  -0x30(%ebp)
  801ce1:	8d 85 ce fd ff ff    	lea    -0x232(%ebp),%eax
  801ce7:	50                   	push   %eax
  801ce8:	e8 33 0e 03 00       	call   832b20 <strcpy>
  801ced:	83 c4 10             	add    $0x10,%esp
  801cf0:	8d 85 ce fd ff ff    	lea    -0x232(%ebp),%eax
  801cf6:	89 45 d0             	mov    %eax,-0x30(%ebp)
  801cf9:	83 ec 08             	sub    $0x8,%esp
  801cfc:	6a 2a                	push   $0x2a
  801cfe:	ff 75 d0             	pushl  -0x30(%ebp)
  801d01:	e8 1a 0d 03 00       	call   832a20 <strchr>
  801d06:	83 c4 10             	add    $0x10,%esp
  801d09:	89 45 d4             	mov    %eax,-0x2c(%ebp)
  801d0c:	83 7d d4 00          	cmpl   $0x0,-0x2c(%ebp)
  801d10:	74 0a                	je     801d1c <PAL_ItemSelectMenuUpdate+0x76b>
  801d12:	8b 45 d4             	mov    -0x2c(%ebp),%eax
  801d15:	c6 00 00             	movb   $0x0,(%eax)
  801d18:	83 45 d4 01          	addl   $0x1,-0x2c(%ebp)
  801d1c:	8b 45 dc             	mov    -0x24(%ebp),%eax
  801d1f:	0f b7 c0             	movzwl %ax,%eax
  801d22:	c1 e0 10             	shl    $0x10,%eax
  801d25:	83 c8 4b             	or     $0x4b,%eax
  801d28:	83 ec 0c             	sub    $0xc,%esp
  801d2b:	6a 00                	push   $0x0
  801d2d:	6a 01                	push   $0x1
  801d2f:	6a 2e                	push   $0x2e
  801d31:	50                   	push   %eax
  801d32:	ff 75 d0             	pushl  -0x30(%ebp)
  801d35:	e8 56 3e 00 00       	call   805b90 <PAL_DrawText>
  801d3a:	83 c4 20             	add    $0x20,%esp
  801d3d:	83 45 dc 10          	addl   $0x10,-0x24(%ebp)
  801d41:	83 7d d4 00          	cmpl   $0x0,-0x2c(%ebp)
  801d45:	74 08                	je     801d4f <PAL_ItemSelectMenuUpdate+0x79e>
  801d47:	8b 45 d4             	mov    -0x2c(%ebp),%eax
  801d4a:	89 45 d0             	mov    %eax,-0x30(%ebp)
  801d4d:	eb aa                	jmp    801cf9 <PAL_ItemSelectMenuUpdate+0x748>
  801d4f:	90                   	nop
  801d50:	c7 c0 38 3a 86 00    	mov    $0x863a38,%eax
  801d56:	8b 40 08             	mov    0x8(%eax),%eax
  801d59:	83 e0 02             	and    $0x2,%eax
  801d5c:	85 c0                	test   %eax,%eax
  801d5e:	0f 84 91 01 00 00    	je     801ef5 <PAL_ItemSelectMenuUpdate+0x944>
  801d64:	c7 c0 cc 31 86 00    	mov    $0x8631cc,%eax
  801d6a:	8b 08                	mov    (%eax),%ecx
  801d6c:	0f b7 55 ce          	movzwl -0x32(%ebp),%edx
  801d70:	89 d0                	mov    %edx,%eax
  801d72:	01 c0                	add    %eax,%eax
  801d74:	01 d0                	add    %edx,%eax
  801d76:	c1 e0 02             	shl    $0x2,%eax
  801d79:	01 c8                	add    %ecx,%eax
  801d7b:	05 92 09 00 00       	add    $0x992,%eax
  801d80:	0f b7 10             	movzwl (%eax),%edx
  801d83:	0f b7 83 64 10 01 00 	movzwl 0x11064(%ebx),%eax
  801d8a:	21 d0                	and    %edx,%eax
  801d8c:	66 85 c0             	test   %ax,%ax
  801d8f:	0f 84 60 01 00 00    	je     801ef5 <PAL_ItemSelectMenuUpdate+0x944>
  801d95:	c7 c0 cc 31 86 00    	mov    $0x8631cc,%eax
  801d9b:	8b 08                	mov    (%eax),%ecx
  801d9d:	c7 c0 cc 31 86 00    	mov    $0x8631cc,%eax
  801da3:	8b 00                	mov    (%eax),%eax
  801da5:	8b 90 c4 2a 00 00    	mov    0x2ac4(%eax),%edx
  801dab:	89 d0                	mov    %edx,%eax
  801dad:	01 c0                	add    %eax,%eax
  801daf:	01 d0                	add    %edx,%eax
  801db1:	01 c0                	add    %eax,%eax
  801db3:	01 c8                	add    %ecx,%eax
  801db5:	05 2e 47 00 00       	add    $0x472e,%eax
  801dba:	0f b7 00             	movzwl (%eax),%eax
  801dbd:	89 c6                	mov    %eax,%esi
  801dbf:	c7 c0 cc 31 86 00    	mov    $0x8631cc,%eax
  801dc5:	8b 08                	mov    (%eax),%ecx
  801dc7:	c7 c0 cc 31 86 00    	mov    $0x8631cc,%eax
  801dcd:	8b 00                	mov    (%eax),%eax
  801dcf:	8b 90 c4 2a 00 00    	mov    0x2ac4(%eax),%edx
  801dd5:	89 d0                	mov    %edx,%eax
  801dd7:	01 c0                	add    %eax,%eax
  801dd9:	01 d0                	add    %edx,%eax
  801ddb:	01 c0                	add    %eax,%eax
  801ddd:	01 c8                	add    %ecx,%eax
  801ddf:	05 30 47 00 00       	add    $0x4730,%eax
  801de4:	0f b7 00             	movzwl (%eax),%eax
  801de7:	66 39 c6             	cmp    %ax,%si
  801dea:	0f 8e 05 01 00 00    	jle    801ef5 <PAL_ItemSelectMenuUpdate+0x944>
  801df0:	c7 c0 cc 31 86 00    	mov    $0x8631cc,%eax
  801df6:	8b 08                	mov    (%eax),%ecx
  801df8:	c7 c0 cc 31 86 00    	mov    $0x8631cc,%eax
  801dfe:	8b 00                	mov    (%eax),%eax
  801e00:	8b 90 c4 2a 00 00    	mov    0x2ac4(%eax),%edx
  801e06:	89 d0                	mov    %edx,%eax
  801e08:	01 c0                	add    %eax,%eax
  801e0a:	01 d0                	add    %edx,%eax
  801e0c:	01 c0                	add    %eax,%eax
  801e0e:	01 c8                	add    %ecx,%eax
  801e10:	05 2e 47 00 00       	add    $0x472e,%eax
  801e15:	0f b7 00             	movzwl (%eax),%eax
  801e18:	66 85 c0             	test   %ax,%ax
  801e1b:	0f 84 ce 00 00 00    	je     801eef <PAL_ItemSelectMenuUpdate+0x93e>
  801e21:	c7 c0 cc 31 86 00    	mov    $0x8631cc,%eax
  801e27:	8b 00                	mov    (%eax),%eax
  801e29:	8b 80 c4 2a 00 00    	mov    0x2ac4(%eax),%eax
  801e2f:	83 f8 0b             	cmp    $0xb,%eax
  801e32:	7f 22                	jg     801e56 <PAL_ItemSelectMenuUpdate+0x8a5>
  801e34:	c7 c0 cc 31 86 00    	mov    $0x8631cc,%eax
  801e3a:	8b 00                	mov    (%eax),%eax
  801e3c:	8b 88 c4 2a 00 00    	mov    0x2ac4(%eax),%ecx
  801e42:	ba 56 55 55 55       	mov    $0x55555556,%edx
  801e47:	89 c8                	mov    %ecx,%eax
  801e49:	f7 ea                	imul   %edx
  801e4b:	89 c8                	mov    %ecx,%eax
  801e4d:	c1 f8 1f             	sar    $0x1f,%eax
  801e50:	29 c2                	sub    %eax,%edx
  801e52:	89 d0                	mov    %edx,%eax
  801e54:	eb 05                	jmp    801e5b <PAL_ItemSelectMenuUpdate+0x8aa>
  801e56:	b8 04 00 00 00       	mov    $0x4,%eax
  801e5b:	89 45 e0             	mov    %eax,-0x20(%ebp)
  801e5e:	c7 c0 cc 31 86 00    	mov    $0x8631cc,%eax
  801e64:	8b 00                	mov    (%eax),%eax
  801e66:	8b 88 c4 2a 00 00    	mov    0x2ac4(%eax),%ecx
  801e6c:	ba 56 55 55 55       	mov    $0x55555556,%edx
  801e71:	89 c8                	mov    %ecx,%eax
  801e73:	f7 ea                	imul   %edx
  801e75:	89 c8                	mov    %ecx,%eax
  801e77:	c1 f8 1f             	sar    $0x1f,%eax
  801e7a:	29 c2                	sub    %eax,%edx
  801e7c:	89 d0                	mov    %edx,%eax
  801e7e:	89 45 dc             	mov    %eax,-0x24(%ebp)
  801e81:	8b 55 dc             	mov    -0x24(%ebp),%edx
  801e84:	89 d0                	mov    %edx,%eax
  801e86:	01 c0                	add    %eax,%eax
  801e88:	01 d0                	add    %edx,%eax
  801e8a:	29 c1                	sub    %eax,%ecx
  801e8c:	89 c8                	mov    %ecx,%eax
  801e8e:	89 45 dc             	mov    %eax,-0x24(%ebp)
  801e91:	8b 45 e0             	mov    -0x20(%ebp),%eax
  801e94:	89 c2                	mov    %eax,%edx
  801e96:	89 d0                	mov    %edx,%eax
  801e98:	c1 e0 03             	shl    $0x3,%eax
  801e9b:	01 d0                	add    %edx,%eax
  801e9d:	01 c0                	add    %eax,%eax
  801e9f:	83 c0 0c             	add    $0xc,%eax
  801ea2:	0f b7 c0             	movzwl %ax,%eax
  801ea5:	c1 e0 10             	shl    $0x10,%eax
  801ea8:	89 c1                	mov    %eax,%ecx
  801eaa:	8b 45 dc             	mov    -0x24(%ebp),%eax
  801ead:	89 c2                	mov    %eax,%edx
  801eaf:	89 d0                	mov    %edx,%eax
  801eb1:	c1 e0 02             	shl    $0x2,%eax
  801eb4:	01 d0                	add    %edx,%eax
  801eb6:	8d 14 85 00 00 00 00 	lea    0x0(,%eax,4),%edx
  801ebd:	01 d0                	add    %edx,%eax
  801ebf:	c1 e0 02             	shl    $0x2,%eax
  801ec2:	83 c0 0f             	add    $0xf,%eax
  801ec5:	0f b7 c0             	movzwl %ax,%eax
  801ec8:	89 ce                	mov    %ecx,%esi
  801eca:	09 c6                	or     %eax,%esi
  801ecc:	0f b7 45 ce          	movzwl -0x32(%ebp),%eax
  801ed0:	83 ec 0c             	sub    $0xc,%esp
  801ed3:	50                   	push   %eax
  801ed4:	e8 de 3a 00 00       	call   8059b7 <PAL_GetWord>
  801ed9:	83 c4 10             	add    $0x10,%esp
  801edc:	83 ec 0c             	sub    $0xc,%esp
  801edf:	6a 00                	push   $0x0
  801ee1:	6a 00                	push   $0x0
  801ee3:	6a 2c                	push   $0x2c
  801ee5:	56                   	push   %esi
  801ee6:	50                   	push   %eax
  801ee7:	e8 a4 3c 00 00       	call   805b90 <PAL_DrawText>
  801eec:	83 c4 20             	add    $0x20,%esp
  801eef:	0f b7 45 ce          	movzwl -0x32(%ebp),%eax
  801ef3:	eb 05                	jmp    801efa <PAL_ItemSelectMenuUpdate+0x949>
  801ef5:	b8 ff ff ff ff       	mov    $0xffffffff,%eax
  801efa:	8d 65 f4             	lea    -0xc(%ebp),%esp
  801efd:	5b                   	pop    %ebx
  801efe:	5e                   	pop    %esi
  801eff:	5f                   	pop    %edi
  801f00:	5d                   	pop    %ebp
  801f01:	c3                   	ret    

00801f02 <PAL_ItemSelectMenuInit>:
  801f02:	55                   	push   %ebp
  801f03:	89 e5                	mov    %esp,%ebp
  801f05:	57                   	push   %edi
  801f06:	56                   	push   %esi
  801f07:	53                   	push   %ebx
  801f08:	83 ec 2c             	sub    $0x2c,%esp
  801f0b:	e8 1e e2 ff ff       	call   80012e <__x86.get_pc_thunk.bx>
  801f10:	81 c3 f0 90 04 00    	add    $0x490f0,%ebx
  801f16:	8b 45 08             	mov    0x8(%ebp),%eax
  801f19:	66 89 45 d4          	mov    %ax,-0x2c(%ebp)
  801f1d:	0f b7 45 d4          	movzwl -0x2c(%ebp),%eax
  801f21:	66 89 83 64 10 01 00 	mov    %ax,0x11064(%ebx)
  801f28:	e8 ab b1 02 00       	call   82d0d8 <PAL_CompressInventory>
  801f2d:	c7 83 60 10 01 00 00 	movl   $0x0,0x11060(%ebx)
  801f34:	00 00 00 
  801f37:	eb 0f                	jmp    801f48 <PAL_ItemSelectMenuInit+0x46>
  801f39:	8b 83 60 10 01 00    	mov    0x11060(%ebx),%eax
  801f3f:	83 c0 01             	add    $0x1,%eax
  801f42:	89 83 60 10 01 00    	mov    %eax,0x11060(%ebx)
  801f48:	8b 83 60 10 01 00    	mov    0x11060(%ebx),%eax
  801f4e:	3d ff 00 00 00       	cmp    $0xff,%eax
  801f53:	7f 25                	jg     801f7a <PAL_ItemSelectMenuInit+0x78>
  801f55:	c7 c0 cc 31 86 00    	mov    $0x8631cc,%eax
  801f5b:	8b 08                	mov    (%eax),%ecx
  801f5d:	8b 93 60 10 01 00    	mov    0x11060(%ebx),%edx
  801f63:	89 d0                	mov    %edx,%eax
  801f65:	01 c0                	add    %eax,%eax
  801f67:	01 d0                	add    %edx,%eax
  801f69:	01 c0                	add    %eax,%eax
  801f6b:	01 c8                	add    %ecx,%eax
  801f6d:	05 2c 47 00 00       	add    $0x472c,%eax
  801f72:	0f b7 00             	movzwl (%eax),%eax
  801f75:	66 85 c0             	test   %ax,%ax
  801f78:	75 bf                	jne    801f39 <PAL_ItemSelectMenuInit+0x37>
  801f7a:	0f b7 45 d4          	movzwl -0x2c(%ebp),%eax
  801f7e:	83 e0 01             	and    $0x1,%eax
  801f81:	85 c0                	test   %eax,%eax
  801f83:	0f 84 77 01 00 00    	je     802100 <PAL_ItemSelectMenuInit+0x1fe>
  801f89:	c7 c0 cc 31 86 00    	mov    $0x8631cc,%eax
  801f8f:	8b 00                	mov    (%eax),%eax
  801f91:	8b 80 d8 2a 00 00    	mov    0x2ad8(%eax),%eax
  801f97:	85 c0                	test   %eax,%eax
  801f99:	0f 85 61 01 00 00    	jne    802100 <PAL_ItemSelectMenuInit+0x1fe>
  801f9f:	c7 45 e4 00 00 00 00 	movl   $0x0,-0x1c(%ebp)
  801fa6:	e9 3a 01 00 00       	jmp    8020e5 <PAL_ItemSelectMenuInit+0x1e3>
  801fab:	c7 c0 cc 31 86 00    	mov    $0x8631cc,%eax
  801fb1:	8b 08                	mov    (%eax),%ecx
  801fb3:	8b 55 e4             	mov    -0x1c(%ebp),%edx
  801fb6:	89 d0                	mov    %edx,%eax
  801fb8:	c1 e0 02             	shl    $0x2,%eax
  801fbb:	01 d0                	add    %edx,%eax
  801fbd:	01 c0                	add    %eax,%eax
  801fbf:	01 c8                	add    %ecx,%eax
  801fc1:	05 f8 43 00 00       	add    $0x43f8,%eax
  801fc6:	0f b7 00             	movzwl (%eax),%eax
  801fc9:	66 89 45 de          	mov    %ax,-0x22(%ebp)
  801fcd:	c7 45 e0 00 00 00 00 	movl   $0x0,-0x20(%ebp)
  801fd4:	e9 fe 00 00 00       	jmp    8020d7 <PAL_ItemSelectMenuInit+0x1d5>
  801fd9:	c7 c0 cc 31 86 00    	mov    $0x8631cc,%eax
  801fdf:	8b 30                	mov    (%eax),%esi
  801fe1:	c7 c0 cc 31 86 00    	mov    $0x8631cc,%eax
  801fe7:	8b 08                	mov    (%eax),%ecx
  801fe9:	0f b7 7d de          	movzwl -0x22(%ebp),%edi
  801fed:	8b 55 e0             	mov    -0x20(%ebp),%edx
  801ff0:	89 d0                	mov    %edx,%eax
  801ff2:	01 c0                	add    %eax,%eax
  801ff4:	01 d0                	add    %edx,%eax
  801ff6:	01 c0                	add    %eax,%eax
  801ff8:	01 f8                	add    %edi,%eax
  801ffa:	05 20 13 00 00       	add    $0x1320,%eax
  801fff:	0f b7 44 41 0c       	movzwl 0xc(%ecx,%eax,2),%eax
  802004:	0f b7 d0             	movzwl %ax,%edx
  802007:	89 d0                	mov    %edx,%eax
  802009:	01 c0                	add    %eax,%eax
  80200b:	01 d0                	add    %edx,%eax
  80200d:	c1 e0 02             	shl    $0x2,%eax
  802010:	01 f0                	add    %esi,%eax
  802012:	05 92 09 00 00       	add    $0x992,%eax
  802017:	0f b7 00             	movzwl (%eax),%eax
  80201a:	0f b7 c0             	movzwl %ax,%eax
  80201d:	83 e0 01             	and    $0x1,%eax
  802020:	85 c0                	test   %eax,%eax
  802022:	0f 84 ab 00 00 00    	je     8020d3 <PAL_ItemSelectMenuInit+0x1d1>
  802028:	8b 83 60 10 01 00    	mov    0x11060(%ebx),%eax
  80202e:	3d ff 00 00 00       	cmp    $0xff,%eax
  802033:	0f 8f 9a 00 00 00    	jg     8020d3 <PAL_ItemSelectMenuInit+0x1d1>
  802039:	c7 c0 cc 31 86 00    	mov    $0x8631cc,%eax
  80203f:	8b 38                	mov    (%eax),%edi
  802041:	8b 8b 60 10 01 00    	mov    0x11060(%ebx),%ecx
  802047:	c7 c0 cc 31 86 00    	mov    $0x8631cc,%eax
  80204d:	8b 30                	mov    (%eax),%esi
  80204f:	0f b7 45 de          	movzwl -0x22(%ebp),%eax
  802053:	89 45 d0             	mov    %eax,-0x30(%ebp)
  802056:	8b 55 e0             	mov    -0x20(%ebp),%edx
  802059:	89 d0                	mov    %edx,%eax
  80205b:	01 c0                	add    %eax,%eax
  80205d:	01 d0                	add    %edx,%eax
  80205f:	01 c0                	add    %eax,%eax
  802061:	03 45 d0             	add    -0x30(%ebp),%eax
  802064:	05 20 13 00 00       	add    $0x1320,%eax
  802069:	0f b7 54 46 0c       	movzwl 0xc(%esi,%eax,2),%edx
  80206e:	89 c8                	mov    %ecx,%eax
  802070:	01 c0                	add    %eax,%eax
  802072:	01 c8                	add    %ecx,%eax
  802074:	01 c0                	add    %eax,%eax
  802076:	01 f8                	add    %edi,%eax
  802078:	05 2c 47 00 00       	add    $0x472c,%eax
  80207d:	66 89 10             	mov    %dx,(%eax)
  802080:	c7 c0 cc 31 86 00    	mov    $0x8631cc,%eax
  802086:	8b 08                	mov    (%eax),%ecx
  802088:	8b 93 60 10 01 00    	mov    0x11060(%ebx),%edx
  80208e:	89 d0                	mov    %edx,%eax
  802090:	01 c0                	add    %eax,%eax
  802092:	01 d0                	add    %edx,%eax
  802094:	01 c0                	add    %eax,%eax
  802096:	01 c8                	add    %ecx,%eax
  802098:	05 2e 47 00 00       	add    $0x472e,%eax
  80209d:	66 c7 00 00 00       	movw   $0x0,(%eax)
  8020a2:	c7 c0 cc 31 86 00    	mov    $0x8631cc,%eax
  8020a8:	8b 08                	mov    (%eax),%ecx
  8020aa:	8b 93 60 10 01 00    	mov    0x11060(%ebx),%edx
  8020b0:	89 d0                	mov    %edx,%eax
  8020b2:	01 c0                	add    %eax,%eax
  8020b4:	01 d0                	add    %edx,%eax
  8020b6:	01 c0                	add    %eax,%eax
  8020b8:	01 c8                	add    %ecx,%eax
  8020ba:	05 30 47 00 00       	add    $0x4730,%eax
  8020bf:	66 c7 00 ff ff       	movw   $0xffff,(%eax)
  8020c4:	8b 83 60 10 01 00    	mov    0x11060(%ebx),%eax
  8020ca:	83 c0 01             	add    $0x1,%eax
  8020cd:	89 83 60 10 01 00    	mov    %eax,0x11060(%ebx)
  8020d3:	83 45 e0 01          	addl   $0x1,-0x20(%ebp)
  8020d7:	83 7d e0 05          	cmpl   $0x5,-0x20(%ebp)
  8020db:	0f 8e f8 fe ff ff    	jle    801fd9 <PAL_ItemSelectMenuInit+0xd7>
  8020e1:	83 45 e4 01          	addl   $0x1,-0x1c(%ebp)
  8020e5:	c7 c0 cc 31 86 00    	mov    $0x8631cc,%eax
  8020eb:	8b 00                	mov    (%eax),%eax
  8020ed:	0f b7 80 f6 43 00 00 	movzwl 0x43f6(%eax),%eax
  8020f4:	0f b7 c0             	movzwl %ax,%eax
  8020f7:	3b 45 e4             	cmp    -0x1c(%ebp),%eax
  8020fa:	0f 8d ab fe ff ff    	jge    801fab <PAL_ItemSelectMenuInit+0xa9>
  802100:	90                   	nop
  802101:	83 c4 2c             	add    $0x2c,%esp
  802104:	5b                   	pop    %ebx
  802105:	5e                   	pop    %esi
  802106:	5f                   	pop    %edi
  802107:	5d                   	pop    %ebp
  802108:	c3                   	ret    

00802109 <PAL_ItemSelectMenu>:
  802109:	55                   	push   %ebp
  80210a:	89 e5                	mov    %esp,%ebp
  80210c:	53                   	push   %ebx
  80210d:	83 ec 24             	sub    $0x24,%esp
  802110:	e8 19 e0 ff ff       	call   80012e <__x86.get_pc_thunk.bx>
  802115:	81 c3 eb 8e 04 00    	add    $0x48eeb,%ebx
  80211b:	8b 45 0c             	mov    0xc(%ebp),%eax
  80211e:	66 89 45 e4          	mov    %ax,-0x1c(%ebp)
  802122:	0f b7 45 e4          	movzwl -0x1c(%ebp),%eax
  802126:	83 ec 0c             	sub    $0xc,%esp
  802129:	50                   	push   %eax
  80212a:	e8 d3 fd ff ff       	call   801f02 <PAL_ItemSelectMenuInit>
  80212f:	83 c4 10             	add    $0x10,%esp
  802132:	c7 c0 cc 31 86 00    	mov    $0x8631cc,%eax
  802138:	8b 00                	mov    (%eax),%eax
  80213a:	8b 80 c4 2a 00 00    	mov    0x2ac4(%eax),%eax
  802140:	89 45 f4             	mov    %eax,-0xc(%ebp)
  802143:	e8 ef 2b 02 00       	call   824d37 <PAL_ClearKeyState>
  802148:	83 7d 08 00          	cmpl   $0x0,0x8(%ebp)
  80214c:	74 41                	je     80218f <PAL_ItemSelectMenu+0x86>
  80214e:	c7 83 68 10 01 00 01 	movl   $0x1,0x11068(%ebx)
  802155:	00 00 00 
  802158:	c7 c0 cc 31 86 00    	mov    $0x8631cc,%eax
  80215e:	8b 08                	mov    (%eax),%ecx
  802160:	c7 c0 cc 31 86 00    	mov    $0x8631cc,%eax
  802166:	8b 00                	mov    (%eax),%eax
  802168:	8b 90 c4 2a 00 00    	mov    0x2ac4(%eax),%edx
  80216e:	89 d0                	mov    %edx,%eax
  802170:	01 c0                	add    %eax,%eax
  802172:	01 d0                	add    %edx,%eax
  802174:	01 c0                	add    %eax,%eax
  802176:	01 c8                	add    %ecx,%eax
  802178:	05 2c 47 00 00       	add    $0x472c,%eax
  80217d:	0f b7 00             	movzwl (%eax),%eax
  802180:	0f b7 c0             	movzwl %ax,%eax
  802183:	83 ec 0c             	sub    $0xc,%esp
  802186:	50                   	push   %eax
  802187:	8b 45 08             	mov    0x8(%ebp),%eax
  80218a:	ff d0                	call   *%eax
  80218c:	83 c4 10             	add    $0x10,%esp
  80218f:	e8 d4 f0 ff ff       	call   801268 <SDL_GetTicks>
  802194:	89 45 f0             	mov    %eax,-0x10(%ebp)
  802197:	83 7d 08 00          	cmpl   $0x0,0x8(%ebp)
  80219b:	75 05                	jne    8021a2 <PAL_ItemSelectMenu+0x99>
  80219d:	e8 ac 7e 02 00       	call   82a04e <PAL_MakeScene>
  8021a2:	e8 0a f4 ff ff       	call   8015b1 <PAL_ItemSelectMenuUpdate>
  8021a7:	66 89 45 ee          	mov    %ax,-0x12(%ebp)
  8021ab:	83 ec 0c             	sub    $0xc,%esp
  8021ae:	6a 00                	push   $0x0
  8021b0:	e8 80 3f 02 00       	call   826135 <VIDEO_UpdateScreen>
  8021b5:	83 c4 10             	add    $0x10,%esp
  8021b8:	e8 7a 2b 02 00       	call   824d37 <PAL_ClearKeyState>
  8021bd:	e8 e9 2b 02 00       	call   824dab <PAL_ProcessEvent>
  8021c2:	eb 1f                	jmp    8021e3 <PAL_ItemSelectMenu+0xda>
  8021c4:	e8 e2 2b 02 00       	call   824dab <PAL_ProcessEvent>
  8021c9:	c7 c0 38 3a 86 00    	mov    $0x863a38,%eax
  8021cf:	8b 40 08             	mov    0x8(%eax),%eax
  8021d2:	85 c0                	test   %eax,%eax
  8021d4:	75 19                	jne    8021ef <PAL_ItemSelectMenu+0xe6>
  8021d6:	83 ec 0c             	sub    $0xc,%esp
  8021d9:	6a 05                	push   $0x5
  8021db:	e8 a6 f0 ff ff       	call   801286 <SDL_Delay>
  8021e0:	83 c4 10             	add    $0x10,%esp
  8021e3:	e8 80 f0 ff ff       	call   801268 <SDL_GetTicks>
  8021e8:	3b 45 f0             	cmp    -0x10(%ebp),%eax
  8021eb:	72 d7                	jb     8021c4 <PAL_ItemSelectMenu+0xbb>
  8021ed:	eb 01                	jmp    8021f0 <PAL_ItemSelectMenu+0xe7>
  8021ef:	90                   	nop
  8021f0:	e8 73 f0 ff ff       	call   801268 <SDL_GetTicks>
  8021f5:	83 c0 64             	add    $0x64,%eax
  8021f8:	89 45 f0             	mov    %eax,-0x10(%ebp)
  8021fb:	66 83 7d ee ff       	cmpw   $0xffff,-0x12(%ebp)
  802200:	74 13                	je     802215 <PAL_ItemSelectMenu+0x10c>
  802202:	c7 83 68 10 01 00 00 	movl   $0x0,0x11068(%ebx)
  802209:	00 00 00 
  80220c:	0f b7 45 ee          	movzwl -0x12(%ebp),%eax
  802210:	e9 91 00 00 00       	jmp    8022a6 <PAL_ItemSelectMenu+0x19d>
  802215:	c7 c0 cc 31 86 00    	mov    $0x8631cc,%eax
  80221b:	8b 00                	mov    (%eax),%eax
  80221d:	8b 80 c4 2a 00 00    	mov    0x2ac4(%eax),%eax
  802223:	3b 45 f4             	cmp    -0xc(%ebp),%eax
  802226:	0f 84 6b ff ff ff    	je     802197 <PAL_ItemSelectMenu+0x8e>
  80222c:	c7 c0 cc 31 86 00    	mov    $0x8631cc,%eax
  802232:	8b 00                	mov    (%eax),%eax
  802234:	8b 80 c4 2a 00 00    	mov    0x2ac4(%eax),%eax
  80223a:	85 c0                	test   %eax,%eax
  80223c:	78 52                	js     802290 <PAL_ItemSelectMenu+0x187>
  80223e:	c7 c0 cc 31 86 00    	mov    $0x8631cc,%eax
  802244:	8b 00                	mov    (%eax),%eax
  802246:	8b 80 c4 2a 00 00    	mov    0x2ac4(%eax),%eax
  80224c:	3d ff 00 00 00       	cmp    $0xff,%eax
  802251:	7f 3d                	jg     802290 <PAL_ItemSelectMenu+0x187>
  802253:	83 7d 08 00          	cmpl   $0x0,0x8(%ebp)
  802257:	74 37                	je     802290 <PAL_ItemSelectMenu+0x187>
  802259:	c7 c0 cc 31 86 00    	mov    $0x8631cc,%eax
  80225f:	8b 08                	mov    (%eax),%ecx
  802261:	c7 c0 cc 31 86 00    	mov    $0x8631cc,%eax
  802267:	8b 00                	mov    (%eax),%eax
  802269:	8b 90 c4 2a 00 00    	mov    0x2ac4(%eax),%edx
  80226f:	89 d0                	mov    %edx,%eax
  802271:	01 c0                	add    %eax,%eax
  802273:	01 d0                	add    %edx,%eax
  802275:	01 c0                	add    %eax,%eax
  802277:	01 c8                	add    %ecx,%eax
  802279:	05 2c 47 00 00       	add    $0x472c,%eax
  80227e:	0f b7 00             	movzwl (%eax),%eax
  802281:	0f b7 c0             	movzwl %ax,%eax
  802284:	83 ec 0c             	sub    $0xc,%esp
  802287:	50                   	push   %eax
  802288:	8b 45 08             	mov    0x8(%ebp),%eax
  80228b:	ff d0                	call   *%eax
  80228d:	83 c4 10             	add    $0x10,%esp
  802290:	c7 c0 cc 31 86 00    	mov    $0x8631cc,%eax
  802296:	8b 00                	mov    (%eax),%eax
  802298:	8b 80 c4 2a 00 00    	mov    0x2ac4(%eax),%eax
  80229e:	89 45 f4             	mov    %eax,-0xc(%ebp)
  8022a1:	e9 f1 fe ff ff       	jmp    802197 <PAL_ItemSelectMenu+0x8e>
  8022a6:	8b 5d fc             	mov    -0x4(%ebp),%ebx
  8022a9:	c9                   	leave  
  8022aa:	c3                   	ret    

008022ab <PAL_PlayerInfoBox>:
  8022ab:	55                   	push   %ebp
  8022ac:	89 e5                	mov    %esp,%ebp
  8022ae:	57                   	push   %edi
  8022af:	56                   	push   %esi
  8022b0:	53                   	push   %ebx
  8022b1:	83 ec 6c             	sub    $0x6c,%esp
  8022b4:	e8 75 de ff ff       	call   80012e <__x86.get_pc_thunk.bx>
  8022b9:	81 c3 47 8d 04 00    	add    $0x48d47,%ebx
  8022bf:	8b 55 0c             	mov    0xc(%ebp),%edx
  8022c2:	8b 45 14             	mov    0x14(%ebp),%eax
  8022c5:	66 89 55 94          	mov    %dx,-0x6c(%ebp)
  8022c9:	88 45 90             	mov    %al,-0x70(%ebp)
  8022cc:	c6 45 be 23          	movb   $0x23,-0x42(%ebp)
  8022d0:	c6 45 bf 13          	movb   $0x13,-0x41(%ebp)
  8022d4:	c6 45 c0 00          	movb   $0x0,-0x40(%ebp)
  8022d8:	c6 45 c1 00          	movb   $0x0,-0x3f(%ebp)
  8022dc:	c6 45 c2 36          	movb   $0x36,-0x3e(%ebp)
  8022e0:	c6 45 c3 01          	movb   $0x1,-0x3d(%ebp)
  8022e4:	c6 45 c4 37          	movb   $0x37,-0x3c(%ebp)
  8022e8:	c6 45 c5 14          	movb   $0x14,-0x3b(%ebp)
  8022ec:	c6 45 c6 00          	movb   $0x0,-0x3a(%ebp)
  8022f0:	c6 45 c7 00          	movb   $0x0,-0x39(%ebp)
  8022f4:	c6 45 c8 00          	movb   $0x0,-0x38(%ebp)
  8022f8:	c6 45 c9 00          	movb   $0x0,-0x37(%ebp)
  8022fc:	c6 45 ca 00          	movb   $0x0,-0x36(%ebp)
  802300:	c6 45 cb 00          	movb   $0x0,-0x35(%ebp)
  802304:	c6 45 cc 00          	movb   $0x0,-0x34(%ebp)
  802308:	c6 45 cd 00          	movb   $0x0,-0x33(%ebp)
  80230c:	c6 45 ce 00          	movb   $0x0,-0x32(%ebp)
  802310:	c6 45 cf 00          	movb   $0x0,-0x31(%ebp)
  802314:	66 c7 45 ac 1d 00    	movw   $0x1d,-0x54(%ebp)
  80231a:	66 c7 45 ae 00 00    	movw   $0x0,-0x52(%ebp)
  802320:	66 c7 45 b0 1c 00    	movw   $0x1c,-0x50(%ebp)
  802326:	66 c7 45 b2 1a 00    	movw   $0x1a,-0x4e(%ebp)
  80232c:	66 c7 45 b4 00 00    	movw   $0x0,-0x4c(%ebp)
  802332:	66 c7 45 b6 00 00    	movw   $0x0,-0x4a(%ebp)
  802338:	66 c7 45 b8 00 00    	movw   $0x0,-0x48(%ebp)
  80233e:	66 c7 45 ba 00 00    	movw   $0x0,-0x46(%ebp)
  802344:	66 c7 45 bc 00 00    	movw   $0x0,-0x44(%ebp)
  80234a:	c6 45 a3 5f          	movb   $0x5f,-0x5d(%ebp)
  80234e:	c6 45 a4 00          	movb   $0x0,-0x5c(%ebp)
  802352:	c6 45 a5 0e          	movb   $0xe,-0x5b(%ebp)
  802356:	c6 45 a6 3c          	movb   $0x3c,-0x5a(%ebp)
  80235a:	c6 45 a7 00          	movb   $0x0,-0x59(%ebp)
  80235e:	c6 45 a8 00          	movb   $0x0,-0x58(%ebp)
  802362:	c6 45 a9 00          	movb   $0x0,-0x57(%ebp)
  802366:	c6 45 aa 00          	movb   $0x0,-0x56(%ebp)
  80236a:	c6 45 ab 00          	movb   $0x0,-0x55(%ebp)
  80236e:	c7 c0 60 d0 85 00    	mov    $0x85d060,%eax
  802374:	8b 30                	mov    (%eax),%esi
  802376:	c7 c0 28 cb 85 00    	mov    $0x85cb28,%eax
  80237c:	8b 00                	mov    (%eax),%eax
  80237e:	83 ec 08             	sub    $0x8,%esp
  802381:	6a 12                	push   $0x12
  802383:	50                   	push   %eax
  802384:	e8 6b d6 02 00       	call   82f9f4 <PAL_SpriteGetFrame>
  802389:	83 c4 10             	add    $0x10,%esp
  80238c:	83 ec 04             	sub    $0x4,%esp
  80238f:	ff 75 08             	pushl  0x8(%ebp)
  802392:	56                   	push   %esi
  802393:	50                   	push   %eax
  802394:	e8 e1 cd 02 00       	call   82f17a <PAL_RLEBlitToSurface>
  802399:	83 c4 10             	add    $0x10,%esp
  80239c:	66 c7 45 da 00 00    	movw   $0x0,-0x26(%ebp)
  8023a2:	c6 45 e7 ff          	movb   $0xff,-0x19(%ebp)
  8023a6:	c7 45 dc 00 00 00 00 	movl   $0x0,-0x24(%ebp)
  8023ad:	eb 28                	jmp    8023d7 <PAL_PlayerInfoBox+0x12c>
  8023af:	c7 c0 cc 31 86 00    	mov    $0x8631cc,%eax
  8023b5:	8b 08                	mov    (%eax),%ecx
  8023b7:	8b 55 dc             	mov    -0x24(%ebp),%edx
  8023ba:	89 d0                	mov    %edx,%eax
  8023bc:	c1 e0 02             	shl    $0x2,%eax
  8023bf:	01 d0                	add    %edx,%eax
  8023c1:	01 c0                	add    %eax,%eax
  8023c3:	01 c8                	add    %ecx,%eax
  8023c5:	05 f8 43 00 00       	add    $0x43f8,%eax
  8023ca:	0f b7 00             	movzwl (%eax),%eax
  8023cd:	66 3b 45 94          	cmp    -0x6c(%ebp),%ax
  8023d1:	74 1d                	je     8023f0 <PAL_PlayerInfoBox+0x145>
  8023d3:	83 45 dc 01          	addl   $0x1,-0x24(%ebp)
  8023d7:	c7 c0 cc 31 86 00    	mov    $0x8631cc,%eax
  8023dd:	8b 00                	mov    (%eax),%eax
  8023df:	0f b7 80 f6 43 00 00 	movzwl 0x43f6(%eax),%eax
  8023e6:	0f b7 c0             	movzwl %ax,%eax
  8023e9:	3b 45 dc             	cmp    -0x24(%ebp),%eax
  8023ec:	7d c1                	jge    8023af <PAL_PlayerInfoBox+0x104>
  8023ee:	eb 01                	jmp    8023f1 <PAL_PlayerInfoBox+0x146>
  8023f0:	90                   	nop
  8023f1:	c7 c0 cc 31 86 00    	mov    $0x8631cc,%eax
  8023f7:	8b 00                	mov    (%eax),%eax
  8023f9:	0f b7 80 f6 43 00 00 	movzwl 0x43f6(%eax),%eax
  802400:	0f b7 c0             	movzwl %ax,%eax
  802403:	3b 45 dc             	cmp    -0x24(%ebp),%eax
  802406:	0f 8c d9 00 00 00    	jl     8024e5 <PAL_PlayerInfoBox+0x23a>
  80240c:	c7 45 e0 00 00 00 00 	movl   $0x0,-0x20(%ebp)
  802413:	e9 c3 00 00 00       	jmp    8024db <PAL_PlayerInfoBox+0x230>
  802418:	c7 c0 cc 31 86 00    	mov    $0x8631cc,%eax
  80241e:	8b 08                	mov    (%eax),%ecx
  802420:	8b 55 e0             	mov    -0x20(%ebp),%edx
  802423:	89 d0                	mov    %edx,%eax
  802425:	c1 e0 02             	shl    $0x2,%eax
  802428:	01 d0                	add    %edx,%eax
  80242a:	8b 55 dc             	mov    -0x24(%ebp),%edx
  80242d:	01 d0                	add    %edx,%eax
  80242f:	05 78 11 00 00       	add    $0x1178,%eax
  802434:	0f b7 44 81 0c       	movzwl 0xc(%ecx,%eax,4),%eax
  802439:	66 89 45 d8          	mov    %ax,-0x28(%ebp)
  80243d:	66 83 7d d8 00       	cmpw   $0x0,-0x28(%ebp)
  802442:	0f 84 8f 00 00 00    	je     8024d7 <PAL_PlayerInfoBox+0x22c>
  802448:	c7 c0 cc 31 86 00    	mov    $0x8631cc,%eax
  80244e:	8b 08                	mov    (%eax),%ecx
  802450:	0f b7 55 d8          	movzwl -0x28(%ebp),%edx
  802454:	89 d0                	mov    %edx,%eax
  802456:	01 c0                	add    %eax,%eax
  802458:	01 d0                	add    %edx,%eax
  80245a:	c1 e0 02             	shl    $0x2,%eax
  80245d:	01 c8                	add    %ecx,%eax
  80245f:	05 88 09 00 00       	add    $0x988,%eax
  802464:	0f b7 00             	movzwl (%eax),%eax
  802467:	66 83 f8 03          	cmp    $0x3,%ax
  80246b:	77 6a                	ja     8024d7 <PAL_PlayerInfoBox+0x22c>
  80246d:	c7 c0 cc 31 86 00    	mov    $0x8631cc,%eax
  802473:	8b 08                	mov    (%eax),%ecx
  802475:	0f b7 55 d8          	movzwl -0x28(%ebp),%edx
  802479:	89 d0                	mov    %edx,%eax
  80247b:	01 c0                	add    %eax,%eax
  80247d:	01 d0                	add    %edx,%eax
  80247f:	c1 e0 02             	shl    $0x2,%eax
  802482:	01 c8                	add    %ecx,%eax
  802484:	05 88 09 00 00       	add    $0x988,%eax
  802489:	0f b7 00             	movzwl (%eax),%eax
  80248c:	66 3b 45 da          	cmp    -0x26(%ebp),%ax
  802490:	72 45                	jb     8024d7 <PAL_PlayerInfoBox+0x22c>
  802492:	c7 c0 cc 31 86 00    	mov    $0x8631cc,%eax
  802498:	8b 08                	mov    (%eax),%ecx
  80249a:	0f b7 55 d8          	movzwl -0x28(%ebp),%edx
  80249e:	89 d0                	mov    %edx,%eax
  8024a0:	01 c0                	add    %eax,%eax
  8024a2:	01 d0                	add    %edx,%eax
  8024a4:	c1 e0 02             	shl    $0x2,%eax
  8024a7:	01 c8                	add    %ecx,%eax
  8024a9:	05 88 09 00 00       	add    $0x988,%eax
  8024ae:	0f b7 00             	movzwl (%eax),%eax
  8024b1:	66 89 45 da          	mov    %ax,-0x26(%ebp)
  8024b5:	c7 c0 cc 31 86 00    	mov    $0x8631cc,%eax
  8024bb:	8b 08                	mov    (%eax),%ecx
  8024bd:	0f b7 55 d8          	movzwl -0x28(%ebp),%edx
  8024c1:	89 d0                	mov    %edx,%eax
  8024c3:	01 c0                	add    %eax,%eax
  8024c5:	01 d0                	add    %edx,%eax
  8024c7:	c1 e0 02             	shl    $0x2,%eax
  8024ca:	01 c8                	add    %ecx,%eax
  8024cc:	05 8a 09 00 00       	add    $0x98a,%eax
  8024d1:	0f b7 00             	movzwl (%eax),%eax
  8024d4:	88 45 e7             	mov    %al,-0x19(%ebp)
  8024d7:	83 45 e0 01          	addl   $0x1,-0x20(%ebp)
  8024db:	83 7d e0 0f          	cmpl   $0xf,-0x20(%ebp)
  8024df:	0f 8e 33 ff ff ff    	jle    802418 <PAL_PlayerInfoBox+0x16d>
  8024e5:	c7 c0 cc 31 86 00    	mov    $0x8631cc,%eax
  8024eb:	8b 00                	mov    (%eax),%eax
  8024ed:	0f b7 55 94          	movzwl -0x6c(%ebp),%edx
  8024f1:	81 c2 10 13 00 00    	add    $0x1310,%edx
  8024f7:	0f b7 44 50 14       	movzwl 0x14(%eax,%edx,2),%eax
  8024fc:	66 85 c0             	test   %ax,%ax
  8024ff:	75 0b                	jne    80250c <PAL_PlayerInfoBox+0x261>
  802501:	c6 45 e7 00          	movb   $0x0,-0x19(%ebp)
  802505:	c7 45 10 00 00 00 00 	movl   $0x0,0x10(%ebp)
  80250c:	80 7d e7 ff          	cmpb   $0xff,-0x19(%ebp)
  802510:	75 52                	jne    802564 <PAL_PlayerInfoBox+0x2b9>
  802512:	8b 45 08             	mov    0x8(%ebp),%eax
  802515:	c1 e8 10             	shr    $0x10,%eax
  802518:	83 e8 04             	sub    $0x4,%eax
  80251b:	0f b7 c0             	movzwl %ax,%eax
  80251e:	c1 e0 10             	shl    $0x10,%eax
  802521:	89 c2                	mov    %eax,%edx
  802523:	8b 45 08             	mov    0x8(%ebp),%eax
  802526:	83 e8 02             	sub    $0x2,%eax
  802529:	0f b7 c0             	movzwl %ax,%eax
  80252c:	89 d7                	mov    %edx,%edi
  80252e:	09 c7                	or     %eax,%edi
  802530:	c7 c0 60 d0 85 00    	mov    $0x85d060,%eax
  802536:	8b 30                	mov    (%eax),%esi
  802538:	0f b7 45 94          	movzwl -0x6c(%ebp),%eax
  80253c:	8d 50 30             	lea    0x30(%eax),%edx
  80253f:	c7 c0 28 cb 85 00    	mov    $0x85cb28,%eax
  802545:	8b 00                	mov    (%eax),%eax
  802547:	83 ec 08             	sub    $0x8,%esp
  80254a:	52                   	push   %edx
  80254b:	50                   	push   %eax
  80254c:	e8 a3 d4 02 00       	call   82f9f4 <PAL_SpriteGetFrame>
  802551:	83 c4 10             	add    $0x10,%esp
  802554:	83 ec 04             	sub    $0x4,%esp
  802557:	57                   	push   %edi
  802558:	56                   	push   %esi
  802559:	50                   	push   %eax
  80255a:	e8 1b cc 02 00       	call   82f17a <PAL_RLEBlitToSurface>
  80255f:	83 c4 10             	add    $0x10,%esp
  802562:	eb 5a                	jmp    8025be <PAL_PlayerInfoBox+0x313>
  802564:	0f b6 7d e7          	movzbl -0x19(%ebp),%edi
  802568:	8b 45 08             	mov    0x8(%ebp),%eax
  80256b:	c1 e8 10             	shr    $0x10,%eax
  80256e:	83 e8 04             	sub    $0x4,%eax
  802571:	0f b7 c0             	movzwl %ax,%eax
  802574:	c1 e0 10             	shl    $0x10,%eax
  802577:	89 c2                	mov    %eax,%edx
  802579:	8b 45 08             	mov    0x8(%ebp),%eax
  80257c:	83 e8 02             	sub    $0x2,%eax
  80257f:	0f b7 c0             	movzwl %ax,%eax
  802582:	09 c2                	or     %eax,%edx
  802584:	89 55 8c             	mov    %edx,-0x74(%ebp)
  802587:	c7 c0 60 d0 85 00    	mov    $0x85d060,%eax
  80258d:	8b 30                	mov    (%eax),%esi
  80258f:	0f b7 45 94          	movzwl -0x6c(%ebp),%eax
  802593:	8d 50 30             	lea    0x30(%eax),%edx
  802596:	c7 c0 28 cb 85 00    	mov    $0x85cb28,%eax
  80259c:	8b 00                	mov    (%eax),%eax
  80259e:	83 ec 08             	sub    $0x8,%esp
  8025a1:	52                   	push   %edx
  8025a2:	50                   	push   %eax
  8025a3:	e8 4c d4 02 00       	call   82f9f4 <PAL_SpriteGetFrame>
  8025a8:	83 c4 10             	add    $0x10,%esp
  8025ab:	83 ec 0c             	sub    $0xc,%esp
  8025ae:	6a 00                	push   $0x0
  8025b0:	57                   	push   %edi
  8025b1:	ff 75 8c             	pushl  -0x74(%ebp)
  8025b4:	56                   	push   %esi
  8025b5:	50                   	push   %eax
  8025b6:	e8 2d d0 02 00       	call   82f5e8 <PAL_RLEBlitMonoColor>
  8025bb:	83 c4 20             	add    $0x20,%esp
  8025be:	8b 45 08             	mov    0x8(%ebp),%eax
  8025c1:	83 c0 1f             	add    $0x1f,%eax
  8025c4:	66 89 45 d0          	mov    %ax,-0x30(%ebp)
  8025c8:	8b 45 08             	mov    0x8(%ebp),%eax
  8025cb:	c1 e8 10             	shr    $0x10,%eax
  8025ce:	83 c0 04             	add    $0x4,%eax
  8025d1:	66 89 45 d2          	mov    %ax,-0x2e(%ebp)
  8025d5:	66 c7 45 d4 01 00    	movw   $0x1,-0x2c(%ebp)
  8025db:	66 c7 45 d6 06 00    	movw   $0x6,-0x2a(%ebp)
  8025e1:	c7 c0 60 d0 85 00    	mov    $0x85d060,%eax
  8025e7:	8b 00                	mov    (%eax),%eax
  8025e9:	83 ec 04             	sub    $0x4,%esp
  8025ec:	68 bd 00 00 00       	push   $0xbd
  8025f1:	8d 55 d0             	lea    -0x30(%ebp),%edx
  8025f4:	52                   	push   %edx
  8025f5:	50                   	push   %eax
  8025f6:	e8 38 e3 ff ff       	call   800933 <SDL_FillRect>
  8025fb:	83 c4 10             	add    $0x10,%esp
  8025fe:	0f b7 45 d0          	movzwl -0x30(%ebp),%eax
  802602:	83 c0 27             	add    $0x27,%eax
  802605:	66 89 45 d0          	mov    %ax,-0x30(%ebp)
  802609:	c7 c0 60 d0 85 00    	mov    $0x85d060,%eax
  80260f:	8b 00                	mov    (%eax),%eax
  802611:	83 ec 04             	sub    $0x4,%esp
  802614:	68 bd 00 00 00       	push   $0xbd
  802619:	8d 55 d0             	lea    -0x30(%ebp),%edx
  80261c:	52                   	push   %edx
  80261d:	50                   	push   %eax
  80261e:	e8 10 e3 ff ff       	call   800933 <SDL_FillRect>
  802623:	83 c4 10             	add    $0x10,%esp
  802626:	8b 45 08             	mov    0x8(%ebp),%eax
  802629:	83 c0 20             	add    $0x20,%eax
  80262c:	66 89 45 d0          	mov    %ax,-0x30(%ebp)
  802630:	8b 45 08             	mov    0x8(%ebp),%eax
  802633:	c1 e8 10             	shr    $0x10,%eax
  802636:	83 c0 03             	add    $0x3,%eax
  802639:	66 89 45 d2          	mov    %ax,-0x2e(%ebp)
  80263d:	66 c7 45 d4 26 00    	movw   $0x26,-0x2c(%ebp)
  802643:	66 c7 45 d6 01 00    	movw   $0x1,-0x2a(%ebp)
  802649:	c7 c0 60 d0 85 00    	mov    $0x85d060,%eax
  80264f:	8b 00                	mov    (%eax),%eax
  802651:	83 ec 04             	sub    $0x4,%esp
  802654:	68 bd 00 00 00       	push   $0xbd
  802659:	8d 55 d0             	lea    -0x30(%ebp),%edx
  80265c:	52                   	push   %edx
  80265d:	50                   	push   %eax
  80265e:	e8 d0 e2 ff ff       	call   800933 <SDL_FillRect>
  802663:	83 c4 10             	add    $0x10,%esp
  802666:	0f b7 45 d2          	movzwl -0x2e(%ebp),%eax
  80266a:	83 c0 07             	add    $0x7,%eax
  80266d:	66 89 45 d2          	mov    %ax,-0x2e(%ebp)
  802671:	c7 c0 60 d0 85 00    	mov    $0x85d060,%eax
  802677:	8b 00                	mov    (%eax),%eax
  802679:	83 ec 04             	sub    $0x4,%esp
  80267c:	68 bd 00 00 00       	push   $0xbd
  802681:	8d 55 d0             	lea    -0x30(%ebp),%edx
  802684:	52                   	push   %edx
  802685:	50                   	push   %eax
  802686:	e8 a8 e2 ff ff       	call   800933 <SDL_FillRect>
  80268b:	83 c4 10             	add    $0x10,%esp
  80268e:	83 7d 10 63          	cmpl   $0x63,0x10(%ebp)
  802692:	7e 3f                	jle    8026d3 <PAL_PlayerInfoBox+0x428>
  802694:	8b 45 08             	mov    0x8(%ebp),%eax
  802697:	83 c0 21             	add    $0x21,%eax
  80269a:	66 89 45 d0          	mov    %ax,-0x30(%ebp)
  80269e:	8b 45 08             	mov    0x8(%ebp),%eax
  8026a1:	c1 e8 10             	shr    $0x10,%eax
  8026a4:	83 c0 06             	add    $0x6,%eax
  8026a7:	66 89 45 d2          	mov    %ax,-0x2e(%ebp)
  8026ab:	66 c7 45 d4 24 00    	movw   $0x24,-0x2c(%ebp)
  8026b1:	66 c7 45 d6 02 00    	movw   $0x2,-0x2a(%ebp)
  8026b7:	c7 c0 60 d0 85 00    	mov    $0x85d060,%eax
  8026bd:	8b 00                	mov    (%eax),%eax
  8026bf:	83 ec 04             	sub    $0x4,%esp
  8026c2:	6a 2c                	push   $0x2c
  8026c4:	8d 55 d0             	lea    -0x30(%ebp),%edx
  8026c7:	52                   	push   %edx
  8026c8:	50                   	push   %eax
  8026c9:	e8 65 e2 ff ff       	call   800933 <SDL_FillRect>
  8026ce:	83 c4 10             	add    $0x10,%esp
  8026d1:	eb 68                	jmp    80273b <PAL_PlayerInfoBox+0x490>
  8026d3:	83 7d 10 00          	cmpl   $0x0,0x10(%ebp)
  8026d7:	7e 62                	jle    80273b <PAL_PlayerInfoBox+0x490>
  8026d9:	8b 45 08             	mov    0x8(%ebp),%eax
  8026dc:	83 c0 21             	add    $0x21,%eax
  8026df:	66 89 45 d0          	mov    %ax,-0x30(%ebp)
  8026e3:	8b 45 08             	mov    0x8(%ebp),%eax
  8026e6:	c1 e8 10             	shr    $0x10,%eax
  8026e9:	83 c0 05             	add    $0x5,%eax
  8026ec:	66 89 45 d2          	mov    %ax,-0x2e(%ebp)
  8026f0:	8b 55 10             	mov    0x10(%ebp),%edx
  8026f3:	89 d0                	mov    %edx,%eax
  8026f5:	c1 e0 03             	shl    $0x3,%eax
  8026f8:	01 d0                	add    %edx,%eax
  8026fa:	c1 e0 02             	shl    $0x2,%eax
  8026fd:	89 c1                	mov    %eax,%ecx
  8026ff:	ba 1f 85 eb 51       	mov    $0x51eb851f,%edx
  802704:	89 c8                	mov    %ecx,%eax
  802706:	f7 ea                	imul   %edx
  802708:	c1 fa 05             	sar    $0x5,%edx
  80270b:	89 c8                	mov    %ecx,%eax
  80270d:	c1 f8 1f             	sar    $0x1f,%eax
  802710:	29 c2                	sub    %eax,%edx
  802712:	89 d0                	mov    %edx,%eax
  802714:	66 89 45 d4          	mov    %ax,-0x2c(%ebp)
  802718:	66 c7 45 d6 04 00    	movw   $0x4,-0x2a(%ebp)
  80271e:	0f b6 55 90          	movzbl -0x70(%ebp),%edx
  802722:	c7 c0 60 d0 85 00    	mov    $0x85d060,%eax
  802728:	8b 00                	mov    (%eax),%eax
  80272a:	83 ec 04             	sub    $0x4,%esp
  80272d:	52                   	push   %edx
  80272e:	8d 55 d0             	lea    -0x30(%ebp),%edx
  802731:	52                   	push   %edx
  802732:	50                   	push   %eax
  802733:	e8 fb e1 ff ff       	call   800933 <SDL_FillRect>
  802738:	83 c4 10             	add    $0x10,%esp
  80273b:	8b 45 08             	mov    0x8(%ebp),%eax
  80273e:	c1 e8 10             	shr    $0x10,%eax
  802741:	83 c0 0e             	add    $0xe,%eax
  802744:	0f b7 c0             	movzwl %ax,%eax
  802747:	c1 e0 10             	shl    $0x10,%eax
  80274a:	89 c2                	mov    %eax,%edx
  80274c:	8b 45 08             	mov    0x8(%ebp),%eax
  80274f:	83 c0 31             	add    $0x31,%eax
  802752:	0f b7 c0             	movzwl %ax,%eax
  802755:	89 d7                	mov    %edx,%edi
  802757:	09 c7                	or     %eax,%edi
  802759:	c7 c0 60 d0 85 00    	mov    $0x85d060,%eax
  80275f:	8b 30                	mov    (%eax),%esi
  802761:	c7 c0 28 cb 85 00    	mov    $0x85cb28,%eax
  802767:	8b 00                	mov    (%eax),%eax
  802769:	83 ec 08             	sub    $0x8,%esp
  80276c:	6a 27                	push   $0x27
  80276e:	50                   	push   %eax
  80276f:	e8 80 d2 02 00       	call   82f9f4 <PAL_SpriteGetFrame>
  802774:	83 c4 10             	add    $0x10,%esp
  802777:	83 ec 04             	sub    $0x4,%esp
  80277a:	57                   	push   %edi
  80277b:	56                   	push   %esi
  80277c:	50                   	push   %eax
  80277d:	e8 f8 c9 02 00       	call   82f17a <PAL_RLEBlitToSurface>
  802782:	83 c4 10             	add    $0x10,%esp
  802785:	8b 45 08             	mov    0x8(%ebp),%eax
  802788:	c1 e8 10             	shr    $0x10,%eax
  80278b:	83 c0 10             	add    $0x10,%eax
  80278e:	0f b7 c0             	movzwl %ax,%eax
  802791:	c1 e0 10             	shl    $0x10,%eax
  802794:	89 c2                	mov    %eax,%edx
  802796:	8b 45 08             	mov    0x8(%ebp),%eax
  802799:	83 c0 2f             	add    $0x2f,%eax
  80279c:	0f b7 c0             	movzwl %ax,%eax
  80279f:	09 c2                	or     %eax,%edx
  8027a1:	c7 c0 cc 31 86 00    	mov    $0x8631cc,%eax
  8027a7:	8b 00                	mov    (%eax),%eax
  8027a9:	0f b7 4d 94          	movzwl -0x6c(%ebp),%ecx
  8027ad:	81 c1 08 13 00 00    	add    $0x1308,%ecx
  8027b3:	0f b7 44 48 0c       	movzwl 0xc(%eax,%ecx,2),%eax
  8027b8:	0f b7 c0             	movzwl %ax,%eax
  8027bb:	83 ec 0c             	sub    $0xc,%esp
  8027be:	6a 02                	push   $0x2
  8027c0:	6a 00                	push   $0x0
  8027c2:	52                   	push   %edx
  8027c3:	6a 04                	push   $0x4
  8027c5:	50                   	push   %eax
  8027c6:	e8 d4 85 00 00       	call   80ad9f <PAL_DrawNumber>
  8027cb:	83 c4 20             	add    $0x20,%esp
  8027ce:	8b 45 08             	mov    0x8(%ebp),%eax
  8027d1:	c1 e8 10             	shr    $0x10,%eax
  8027d4:	83 c0 0d             	add    $0xd,%eax
  8027d7:	0f b7 c0             	movzwl %ax,%eax
  8027da:	c1 e0 10             	shl    $0x10,%eax
  8027dd:	89 c2                	mov    %eax,%edx
  8027df:	8b 45 08             	mov    0x8(%ebp),%eax
  8027e2:	83 c0 1a             	add    $0x1a,%eax
  8027e5:	0f b7 c0             	movzwl %ax,%eax
  8027e8:	09 c2                	or     %eax,%edx
  8027ea:	c7 c0 cc 31 86 00    	mov    $0x8631cc,%eax
  8027f0:	8b 00                	mov    (%eax),%eax
  8027f2:	0f b7 4d 94          	movzwl -0x6c(%ebp),%ecx
  8027f6:	81 c1 10 13 00 00    	add    $0x1310,%ecx
  8027fc:	0f b7 44 48 14       	movzwl 0x14(%eax,%ecx,2),%eax
  802801:	0f b7 c0             	movzwl %ax,%eax
  802804:	83 ec 0c             	sub    $0xc,%esp
  802807:	6a 02                	push   $0x2
  802809:	6a 00                	push   $0x0
  80280b:	52                   	push   %edx
  80280c:	6a 04                	push   $0x4
  80280e:	50                   	push   %eax
  80280f:	e8 8b 85 00 00       	call   80ad9f <PAL_DrawNumber>
  802814:	83 c4 20             	add    $0x20,%esp
  802817:	8b 45 08             	mov    0x8(%ebp),%eax
  80281a:	c1 e8 10             	shr    $0x10,%eax
  80281d:	83 c0 18             	add    $0x18,%eax
  802820:	0f b7 c0             	movzwl %ax,%eax
  802823:	c1 e0 10             	shl    $0x10,%eax
  802826:	89 c2                	mov    %eax,%edx
  802828:	8b 45 08             	mov    0x8(%ebp),%eax
  80282b:	83 c0 31             	add    $0x31,%eax
  80282e:	0f b7 c0             	movzwl %ax,%eax
  802831:	89 d7                	mov    %edx,%edi
  802833:	09 c7                	or     %eax,%edi
  802835:	c7 c0 60 d0 85 00    	mov    $0x85d060,%eax
  80283b:	8b 30                	mov    (%eax),%esi
  80283d:	c7 c0 28 cb 85 00    	mov    $0x85cb28,%eax
  802843:	8b 00                	mov    (%eax),%eax
  802845:	83 ec 08             	sub    $0x8,%esp
  802848:	6a 27                	push   $0x27
  80284a:	50                   	push   %eax
  80284b:	e8 a4 d1 02 00       	call   82f9f4 <PAL_SpriteGetFrame>
  802850:	83 c4 10             	add    $0x10,%esp
  802853:	83 ec 04             	sub    $0x4,%esp
  802856:	57                   	push   %edi
  802857:	56                   	push   %esi
  802858:	50                   	push   %eax
  802859:	e8 1c c9 02 00       	call   82f17a <PAL_RLEBlitToSurface>
  80285e:	83 c4 10             	add    $0x10,%esp
  802861:	8b 45 08             	mov    0x8(%ebp),%eax
  802864:	c1 e8 10             	shr    $0x10,%eax
  802867:	83 c0 1a             	add    $0x1a,%eax
  80286a:	0f b7 c0             	movzwl %ax,%eax
  80286d:	c1 e0 10             	shl    $0x10,%eax
  802870:	89 c2                	mov    %eax,%edx
  802872:	8b 45 08             	mov    0x8(%ebp),%eax
  802875:	83 c0 2f             	add    $0x2f,%eax
  802878:	0f b7 c0             	movzwl %ax,%eax
  80287b:	09 c2                	or     %eax,%edx
  80287d:	c7 c0 cc 31 86 00    	mov    $0x8631cc,%eax
  802883:	8b 00                	mov    (%eax),%eax
  802885:	0f b7 4d 94          	movzwl -0x6c(%ebp),%ecx
  802889:	81 c1 10 13 00 00    	add    $0x1310,%ecx
  80288f:	0f b7 44 48 08       	movzwl 0x8(%eax,%ecx,2),%eax
  802894:	0f b7 c0             	movzwl %ax,%eax
  802897:	83 ec 0c             	sub    $0xc,%esp
  80289a:	6a 02                	push   $0x2
  80289c:	6a 02                	push   $0x2
  80289e:	52                   	push   %edx
  80289f:	6a 04                	push   $0x4
  8028a1:	50                   	push   %eax
  8028a2:	e8 f8 84 00 00       	call   80ad9f <PAL_DrawNumber>
  8028a7:	83 c4 20             	add    $0x20,%esp
  8028aa:	8b 45 08             	mov    0x8(%ebp),%eax
  8028ad:	c1 e8 10             	shr    $0x10,%eax
  8028b0:	83 c0 17             	add    $0x17,%eax
  8028b3:	0f b7 c0             	movzwl %ax,%eax
  8028b6:	c1 e0 10             	shl    $0x10,%eax
  8028b9:	89 c2                	mov    %eax,%edx
  8028bb:	8b 45 08             	mov    0x8(%ebp),%eax
  8028be:	83 c0 1a             	add    $0x1a,%eax
  8028c1:	0f b7 c0             	movzwl %ax,%eax
  8028c4:	09 c2                	or     %eax,%edx
  8028c6:	c7 c0 cc 31 86 00    	mov    $0x8631cc,%eax
  8028cc:	8b 00                	mov    (%eax),%eax
  8028ce:	0f b7 4d 94          	movzwl -0x6c(%ebp),%ecx
  8028d2:	81 c1 18 13 00 00    	add    $0x1318,%ecx
  8028d8:	0f b7 44 48 10       	movzwl 0x10(%eax,%ecx,2),%eax
  8028dd:	0f b7 c0             	movzwl %ax,%eax
  8028e0:	83 ec 0c             	sub    $0xc,%esp
  8028e3:	6a 02                	push   $0x2
  8028e5:	6a 02                	push   $0x2
  8028e7:	52                   	push   %edx
  8028e8:	6a 04                	push   $0x4
  8028ea:	50                   	push   %eax
  8028eb:	e8 af 84 00 00       	call   80ad9f <PAL_DrawNumber>
  8028f0:	83 c4 20             	add    $0x20,%esp
  8028f3:	c7 c0 cc 31 86 00    	mov    $0x8631cc,%eax
  8028f9:	8b 00                	mov    (%eax),%eax
  8028fb:	0f b7 55 94          	movzwl -0x6c(%ebp),%edx
  8028ff:	81 c2 10 13 00 00    	add    $0x1310,%edx
  802905:	0f b7 44 50 14       	movzwl 0x14(%eax,%edx,2),%eax
  80290a:	66 85 c0             	test   %ax,%ax
  80290d:	0f 84 ba 00 00 00    	je     8029cd <PAL_PlayerInfoBox+0x722>
  802913:	c7 45 e0 00 00 00 00 	movl   $0x0,-0x20(%ebp)
  80291a:	e9 a4 00 00 00       	jmp    8029c3 <PAL_PlayerInfoBox+0x718>
  80291f:	c7 c0 cc 31 86 00    	mov    $0x8631cc,%eax
  802925:	8b 08                	mov    (%eax),%ecx
  802927:	0f b7 55 94          	movzwl -0x6c(%ebp),%edx
  80292b:	89 d0                	mov    %edx,%eax
  80292d:	c1 e0 03             	shl    $0x3,%eax
  802930:	01 d0                	add    %edx,%eax
  802932:	8b 55 e0             	mov    -0x20(%ebp),%edx
  802935:	01 d0                	add    %edx,%eax
  802937:	05 c0 21 00 00       	add    $0x21c0,%eax
  80293c:	0f b7 04 41          	movzwl (%ecx,%eax,2),%eax
  802940:	66 85 c0             	test   %ax,%ax
  802943:	74 7a                	je     8029bf <PAL_PlayerInfoBox+0x714>
  802945:	8b 45 e0             	mov    -0x20(%ebp),%eax
  802948:	0f b7 44 45 ac       	movzwl -0x54(%ebp,%eax,2),%eax
  80294d:	66 85 c0             	test   %ax,%ax
  802950:	74 6d                	je     8029bf <PAL_PlayerInfoBox+0x714>
  802952:	8d 55 a3             	lea    -0x5d(%ebp),%edx
  802955:	8b 45 e0             	mov    -0x20(%ebp),%eax
  802958:	01 d0                	add    %edx,%eax
  80295a:	0f b6 00             	movzbl (%eax),%eax
  80295d:	0f b6 f0             	movzbl %al,%esi
  802960:	8b 45 08             	mov    0x8(%ebp),%eax
  802963:	c1 e8 10             	shr    $0x10,%eax
  802966:	89 c2                	mov    %eax,%edx
  802968:	8b 45 e0             	mov    -0x20(%ebp),%eax
  80296b:	0f b6 44 45 bf       	movzbl -0x41(%ebp,%eax,2),%eax
  802970:	0f b6 c0             	movzbl %al,%eax
  802973:	01 d0                	add    %edx,%eax
  802975:	0f b7 c0             	movzwl %ax,%eax
  802978:	c1 e0 10             	shl    $0x10,%eax
  80297b:	89 c2                	mov    %eax,%edx
  80297d:	8b 45 08             	mov    0x8(%ebp),%eax
  802980:	89 c1                	mov    %eax,%ecx
  802982:	8b 45 e0             	mov    -0x20(%ebp),%eax
  802985:	0f b6 44 45 be       	movzbl -0x42(%ebp,%eax,2),%eax
  80298a:	0f b6 c0             	movzbl %al,%eax
  80298d:	01 c8                	add    %ecx,%eax
  80298f:	0f b7 c0             	movzwl %ax,%eax
  802992:	89 d7                	mov    %edx,%edi
  802994:	09 c7                	or     %eax,%edi
  802996:	8b 45 e0             	mov    -0x20(%ebp),%eax
  802999:	0f b7 44 45 ac       	movzwl -0x54(%ebp,%eax,2),%eax
  80299e:	0f b7 c0             	movzwl %ax,%eax
  8029a1:	83 ec 0c             	sub    $0xc,%esp
  8029a4:	50                   	push   %eax
  8029a5:	e8 0d 30 00 00       	call   8059b7 <PAL_GetWord>
  8029aa:	83 c4 10             	add    $0x10,%esp
  8029ad:	83 ec 0c             	sub    $0xc,%esp
  8029b0:	6a 00                	push   $0x0
  8029b2:	6a 01                	push   $0x1
  8029b4:	56                   	push   %esi
  8029b5:	57                   	push   %edi
  8029b6:	50                   	push   %eax
  8029b7:	e8 d4 31 00 00       	call   805b90 <PAL_DrawText>
  8029bc:	83 c4 20             	add    $0x20,%esp
  8029bf:	83 45 e0 01          	addl   $0x1,-0x20(%ebp)
  8029c3:	83 7d e0 08          	cmpl   $0x8,-0x20(%ebp)
  8029c7:	0f 8e 52 ff ff ff    	jle    80291f <PAL_PlayerInfoBox+0x674>
  8029cd:	83 7d 18 00          	cmpl   $0x0,0x18(%ebp)
  8029d1:	74 32                	je     802a05 <PAL_PlayerInfoBox+0x75a>
  8029d3:	8b 45 08             	mov    0x8(%ebp),%eax
  8029d6:	83 e8 02             	sub    $0x2,%eax
  8029d9:	66 89 45 d0          	mov    %ax,-0x30(%ebp)
  8029dd:	8b 45 08             	mov    0x8(%ebp),%eax
  8029e0:	c1 e8 10             	shr    $0x10,%eax
  8029e3:	83 e8 04             	sub    $0x4,%eax
  8029e6:	66 89 45 d2          	mov    %ax,-0x2e(%ebp)
  8029ea:	66 c7 45 d4 4d 00    	movw   $0x4d,-0x2c(%ebp)
  8029f0:	66 c7 45 d6 27 00    	movw   $0x27,-0x2a(%ebp)
  8029f6:	83 ec 0c             	sub    $0xc,%esp
  8029f9:	8d 45 d0             	lea    -0x30(%ebp),%eax
  8029fc:	50                   	push   %eax
  8029fd:	e8 33 37 02 00       	call   826135 <VIDEO_UpdateScreen>
  802a02:	83 c4 10             	add    $0x10,%esp
  802a05:	90                   	nop
  802a06:	8d 65 f4             	lea    -0xc(%ebp),%esp
  802a09:	5b                   	pop    %ebx
  802a0a:	5e                   	pop    %esi
  802a0b:	5f                   	pop    %edi
  802a0c:	5d                   	pop    %ebp
  802a0d:	c3                   	ret    

00802a0e <PAL_BattleUIIsActionValid>:
  802a0e:	55                   	push   %ebp
  802a0f:	89 e5                	mov    %esp,%ebp
  802a11:	53                   	push   %ebx
  802a12:	83 ec 10             	sub    $0x10,%esp
  802a15:	e8 10 d7 ff ff       	call   80012a <__x86.get_pc_thunk.ax>
  802a1a:	05 e6 85 04 00       	add    $0x485e6,%eax
  802a1f:	c7 c2 cc 31 86 00    	mov    $0x8631cc,%edx
  802a25:	8b 1a                	mov    (%edx),%ebx
  802a27:	c7 c2 20 32 86 00    	mov    $0x863220,%edx
  802a2d:	0f b7 92 f2 06 00 00 	movzwl 0x6f2(%edx),%edx
  802a34:	0f b7 ca             	movzwl %dx,%ecx
  802a37:	89 ca                	mov    %ecx,%edx
  802a39:	c1 e2 02             	shl    $0x2,%edx
  802a3c:	01 ca                	add    %ecx,%edx
  802a3e:	01 d2                	add    %edx,%edx
  802a40:	01 da                	add    %ebx,%edx
  802a42:	81 c2 f8 43 00 00    	add    $0x43f8,%edx
  802a48:	0f b7 12             	movzwl (%edx),%edx
  802a4b:	66 89 55 f6          	mov    %dx,-0xa(%ebp)
  802a4f:	8b 55 08             	mov    0x8(%ebp),%edx
  802a52:	83 fa 01             	cmp    $0x1,%edx
  802a55:	74 16                	je     802a6d <PAL_BattleUIIsActionValid+0x5f>
  802a57:	83 fa 01             	cmp    $0x1,%edx
  802a5a:	0f 82 a5 01 00 00    	jb     802c05 <PAL_BattleUIIsActionValid+0x1f7>
  802a60:	83 fa 02             	cmp    $0x2,%edx
  802a63:	74 3a                	je     802a9f <PAL_BattleUIIsActionValid+0x91>
  802a65:	83 fa 03             	cmp    $0x3,%edx
  802a68:	e9 98 01 00 00       	jmp    802c05 <PAL_BattleUIIsActionValid+0x1f7>
  802a6d:	c7 c0 cc 31 86 00    	mov    $0x8631cc,%eax
  802a73:	8b 08                	mov    (%eax),%ecx
  802a75:	0f b7 55 f6          	movzwl -0xa(%ebp),%edx
  802a79:	89 d0                	mov    %edx,%eax
  802a7b:	c1 e0 03             	shl    $0x3,%eax
  802a7e:	01 d0                	add    %edx,%eax
  802a80:	01 c0                	add    %eax,%eax
  802a82:	01 c8                	add    %ecx,%eax
  802a84:	05 86 43 00 00       	add    $0x4386,%eax
  802a89:	0f b7 00             	movzwl (%eax),%eax
  802a8c:	66 85 c0             	test   %ax,%ax
  802a8f:	0f 84 73 01 00 00    	je     802c08 <PAL_BattleUIIsActionValid+0x1fa>
  802a95:	b8 00 00 00 00       	mov    $0x0,%eax
  802a9a:	e9 6f 01 00 00       	jmp    802c0e <PAL_BattleUIIsActionValid+0x200>
  802a9f:	c7 c2 cc 31 86 00    	mov    $0x8631cc,%edx
  802aa5:	8b 12                	mov    (%edx),%edx
  802aa7:	0f b7 92 f6 43 00 00 	movzwl 0x43f6(%edx),%edx
  802aae:	66 85 d2             	test   %dx,%dx
  802ab1:	75 0a                	jne    802abd <PAL_BattleUIIsActionValid+0xaf>
  802ab3:	b8 00 00 00 00       	mov    $0x0,%eax
  802ab8:	e9 51 01 00 00       	jmp    802c0e <PAL_BattleUIIsActionValid+0x200>
  802abd:	c7 45 f8 00 00 00 00 	movl   $0x0,-0x8(%ebp)
  802ac4:	e9 1f 01 00 00       	jmp    802be8 <PAL_BattleUIIsActionValid+0x1da>
  802ac9:	c7 c2 cc 31 86 00    	mov    $0x8631cc,%edx
  802acf:	8b 1a                	mov    (%edx),%ebx
  802ad1:	8b 4d f8             	mov    -0x8(%ebp),%ecx
  802ad4:	89 ca                	mov    %ecx,%edx
  802ad6:	c1 e2 02             	shl    $0x2,%edx
  802ad9:	01 ca                	add    %ecx,%edx
  802adb:	01 d2                	add    %edx,%edx
  802add:	01 da                	add    %ebx,%edx
  802adf:	81 c2 f8 43 00 00    	add    $0x43f8,%edx
  802ae5:	0f b7 12             	movzwl (%edx),%edx
  802ae8:	66 89 55 f4          	mov    %dx,-0xc(%ebp)
  802aec:	c7 c2 cc 31 86 00    	mov    $0x8631cc,%edx
  802af2:	8b 12                	mov    (%edx),%edx
  802af4:	0f b7 4d f4          	movzwl -0xc(%ebp),%ecx
  802af8:	81 c1 10 13 00 00    	add    $0x1310,%ecx
  802afe:	0f b7 4c 4a 14       	movzwl 0x14(%edx,%ecx,2),%ecx
  802b03:	c7 c2 cc 31 86 00    	mov    $0x8631cc,%edx
  802b09:	8b 12                	mov    (%edx),%edx
  802b0b:	0f b7 5d f4          	movzwl -0xc(%ebp),%ebx
  802b0f:	81 c3 08 13 00 00    	add    $0x1308,%ebx
  802b15:	0f b7 54 5a 0c       	movzwl 0xc(%edx,%ebx,2),%edx
  802b1a:	0f b7 d2             	movzwl %dx,%edx
  802b1d:	69 d2 cd cc 00 00    	imul   $0xcccd,%edx,%edx
  802b23:	c1 ea 10             	shr    $0x10,%edx
  802b26:	66 c1 ea 02          	shr    $0x2,%dx
  802b2a:	66 39 d1             	cmp    %dx,%cx
  802b2d:	0f 82 aa 00 00 00    	jb     802bdd <PAL_BattleUIIsActionValid+0x1cf>
  802b33:	c7 c2 cc 31 86 00    	mov    $0x8631cc,%edx
  802b39:	8b 1a                	mov    (%edx),%ebx
  802b3b:	0f b7 4d f4          	movzwl -0xc(%ebp),%ecx
  802b3f:	89 ca                	mov    %ecx,%edx
  802b41:	c1 e2 03             	shl    $0x3,%edx
  802b44:	01 ca                	add    %ecx,%edx
  802b46:	01 d2                	add    %edx,%edx
  802b48:	01 da                	add    %ebx,%edx
  802b4a:	81 c2 84 43 00 00    	add    $0x4384,%edx
  802b50:	0f b7 12             	movzwl (%edx),%edx
  802b53:	66 85 d2             	test   %dx,%dx
  802b56:	0f 85 81 00 00 00    	jne    802bdd <PAL_BattleUIIsActionValid+0x1cf>
  802b5c:	c7 c2 cc 31 86 00    	mov    $0x8631cc,%edx
  802b62:	8b 1a                	mov    (%edx),%ebx
  802b64:	0f b7 4d f4          	movzwl -0xc(%ebp),%ecx
  802b68:	89 ca                	mov    %ecx,%edx
  802b6a:	c1 e2 03             	shl    $0x3,%edx
  802b6d:	01 ca                	add    %ecx,%edx
  802b6f:	01 d2                	add    %edx,%edx
  802b71:	01 da                	add    %ebx,%edx
  802b73:	81 c2 80 43 00 00    	add    $0x4380,%edx
  802b79:	0f b7 12             	movzwl (%edx),%edx
  802b7c:	66 85 d2             	test   %dx,%dx
  802b7f:	75 5c                	jne    802bdd <PAL_BattleUIIsActionValid+0x1cf>
  802b81:	c7 c2 cc 31 86 00    	mov    $0x8631cc,%edx
  802b87:	8b 1a                	mov    (%edx),%ebx
  802b89:	0f b7 4d f4          	movzwl -0xc(%ebp),%ecx
  802b8d:	89 ca                	mov    %ecx,%edx
  802b8f:	c1 e2 03             	shl    $0x3,%edx
  802b92:	01 ca                	add    %ecx,%edx
  802b94:	01 d2                	add    %edx,%edx
  802b96:	01 da                	add    %ebx,%edx
  802b98:	81 c2 86 43 00 00    	add    $0x4386,%edx
  802b9e:	0f b7 12             	movzwl (%edx),%edx
  802ba1:	66 85 d2             	test   %dx,%dx
  802ba4:	75 37                	jne    802bdd <PAL_BattleUIIsActionValid+0x1cf>
  802ba6:	c7 c1 20 32 86 00    	mov    $0x863220,%ecx
  802bac:	8b 55 f8             	mov    -0x8(%ebp),%edx
  802baf:	6b d2 3c             	imul   $0x3c,%edx,%edx
  802bb2:	01 ca                	add    %ecx,%edx
  802bb4:	83 c2 04             	add    $0x4,%edx
  802bb7:	d9 02                	flds   (%edx)
  802bb9:	d9 80 84 68 ff ff    	flds   -0x977c(%eax)
  802bbf:	df e9                	fucomip %st(1),%st
  802bc1:	dd d8                	fstp   %st(0)
  802bc3:	77 18                	ja     802bdd <PAL_BattleUIIsActionValid+0x1cf>
  802bc5:	c7 c1 20 32 86 00    	mov    $0x863220,%ecx
  802bcb:	8b 55 f8             	mov    -0x8(%ebp),%edx
  802bce:	6b d2 3c             	imul   $0x3c,%edx,%edx
  802bd1:	01 ca                	add    %ecx,%edx
  802bd3:	83 c2 20             	add    $0x20,%edx
  802bd6:	8b 12                	mov    (%edx),%edx
  802bd8:	83 fa 02             	cmp    $0x2,%edx
  802bdb:	75 07                	jne    802be4 <PAL_BattleUIIsActionValid+0x1d6>
  802bdd:	b8 00 00 00 00       	mov    $0x0,%eax
  802be2:	eb 2a                	jmp    802c0e <PAL_BattleUIIsActionValid+0x200>
  802be4:	83 45 f8 01          	addl   $0x1,-0x8(%ebp)
  802be8:	c7 c2 cc 31 86 00    	mov    $0x8631cc,%edx
  802bee:	8b 12                	mov    (%edx),%edx
  802bf0:	0f b7 92 f6 43 00 00 	movzwl 0x43f6(%edx),%edx
  802bf7:	0f b7 d2             	movzwl %dx,%edx
  802bfa:	3b 55 f8             	cmp    -0x8(%ebp),%edx
  802bfd:	0f 8d c6 fe ff ff    	jge    802ac9 <PAL_BattleUIIsActionValid+0xbb>
  802c03:	eb 04                	jmp    802c09 <PAL_BattleUIIsActionValid+0x1fb>
  802c05:	90                   	nop
  802c06:	eb 01                	jmp    802c09 <PAL_BattleUIIsActionValid+0x1fb>
  802c08:	90                   	nop
  802c09:	b8 01 00 00 00       	mov    $0x1,%eax
  802c0e:	83 c4 10             	add    $0x10,%esp
  802c11:	5b                   	pop    %ebx
  802c12:	5d                   	pop    %ebp
  802c13:	c3                   	ret    

00802c14 <PAL_BattleUIDrawMiscMenu>:
  802c14:	55                   	push   %ebp
  802c15:	89 e5                	mov    %esp,%ebp
  802c17:	57                   	push   %edi
  802c18:	56                   	push   %esi
  802c19:	53                   	push   %ebx
  802c1a:	83 ec 6c             	sub    $0x6c,%esp
  802c1d:	e8 0c d5 ff ff       	call   80012e <__x86.get_pc_thunk.bx>
  802c22:	81 c3 de 83 04 00    	add    $0x483de,%ebx
  802c28:	8b 45 08             	mov    0x8(%ebp),%eax
  802c2b:	66 89 45 94          	mov    %ax,-0x6c(%ebp)
  802c2f:	66 c7 45 a4 00 00    	movw   $0x0,-0x5c(%ebp)
  802c35:	66 c7 45 a6 05 00    	movw   $0x5,-0x5a(%ebp)
  802c3b:	c7 45 a8 01 00 00 00 	movl   $0x1,-0x58(%ebp)
  802c42:	c7 45 ac 10 00 20 00 	movl   $0x200010,-0x54(%ebp)
  802c49:	66 c7 45 b0 01 00    	movw   $0x1,-0x50(%ebp)
  802c4f:	66 c7 45 b2 3a 00    	movw   $0x3a,-0x4e(%ebp)
  802c55:	c7 45 b4 01 00 00 00 	movl   $0x1,-0x4c(%ebp)
  802c5c:	c7 45 b8 10 00 32 00 	movl   $0x320010,-0x48(%ebp)
  802c63:	66 c7 45 bc 02 00    	movw   $0x2,-0x44(%ebp)
  802c69:	66 c7 45 be 38 00    	movw   $0x38,-0x42(%ebp)
  802c6f:	c7 45 c0 01 00 00 00 	movl   $0x1,-0x40(%ebp)
  802c76:	c7 45 c4 10 00 44 00 	movl   $0x440010,-0x3c(%ebp)
  802c7d:	66 c7 45 c8 03 00    	movw   $0x3,-0x38(%ebp)
  802c83:	66 c7 45 ca 3b 00    	movw   $0x3b,-0x36(%ebp)
  802c89:	c7 45 cc 01 00 00 00 	movl   $0x1,-0x34(%ebp)
  802c90:	c7 45 d0 10 00 56 00 	movl   $0x560010,-0x30(%ebp)
  802c97:	66 c7 45 d4 04 00    	movw   $0x4,-0x2c(%ebp)
  802c9d:	66 c7 45 d6 3c 00    	movw   $0x3c,-0x2a(%ebp)
  802ca3:	c7 45 d8 01 00 00 00 	movl   $0x1,-0x28(%ebp)
  802caa:	c7 45 dc 10 00 68 00 	movl   $0x680010,-0x24(%ebp)
  802cb1:	83 ec 0c             	sub    $0xc,%esp
  802cb4:	6a 00                	push   $0x0
  802cb6:	6a 00                	push   $0x0
  802cb8:	6a 01                	push   $0x1
  802cba:	6a 04                	push   $0x4
  802cbc:	68 02 00 14 00       	push   $0x140002
  802cc1:	e8 5b 72 00 00       	call   809f21 <PAL_CreateBox>
  802cc6:	83 c4 20             	add    $0x20,%esp
  802cc9:	c7 45 e4 00 00 00 00 	movl   $0x0,-0x1c(%ebp)
  802cd0:	e9 a0 00 00 00       	jmp    802d75 <PAL_BattleUIDrawMiscMenu+0x161>
  802cd5:	c6 45 e3 4f          	movb   $0x4f,-0x1d(%ebp)
  802cd9:	0f b7 45 94          	movzwl -0x6c(%ebp),%eax
  802cdd:	3b 45 e4             	cmp    -0x1c(%ebp),%eax
  802ce0:	75 3d                	jne    802d1f <PAL_BattleUIDrawMiscMenu+0x10b>
  802ce2:	83 7d 0c 00          	cmpl   $0x0,0xc(%ebp)
  802ce6:	74 06                	je     802cee <PAL_BattleUIDrawMiscMenu+0xda>
  802ce8:	c6 45 e3 2c          	movb   $0x2c,-0x1d(%ebp)
  802cec:	eb 31                	jmp    802d1f <PAL_BattleUIDrawMiscMenu+0x10b>
  802cee:	e8 75 e5 ff ff       	call   801268 <SDL_GetTicks>
  802cf3:	ba 1f 85 eb 51       	mov    $0x51eb851f,%edx
  802cf8:	f7 e2                	mul    %edx
  802cfa:	89 d1                	mov    %edx,%ecx
  802cfc:	c1 e9 05             	shr    $0x5,%ecx
  802cff:	ba ab aa aa aa       	mov    $0xaaaaaaab,%edx
  802d04:	89 c8                	mov    %ecx,%eax
  802d06:	f7 e2                	mul    %edx
  802d08:	c1 ea 02             	shr    $0x2,%edx
  802d0b:	89 d0                	mov    %edx,%eax
  802d0d:	01 c0                	add    %eax,%eax
  802d0f:	01 d0                	add    %edx,%eax
  802d11:	01 c0                	add    %eax,%eax
  802d13:	29 c1                	sub    %eax,%ecx
  802d15:	89 ca                	mov    %ecx,%edx
  802d17:	89 d0                	mov    %edx,%eax
  802d19:	83 e8 07             	sub    $0x7,%eax
  802d1c:	88 45 e3             	mov    %al,-0x1d(%ebp)
  802d1f:	0f b6 7d e3          	movzbl -0x1d(%ebp),%edi
  802d23:	8b 55 e4             	mov    -0x1c(%ebp),%edx
  802d26:	89 d0                	mov    %edx,%eax
  802d28:	01 c0                	add    %eax,%eax
  802d2a:	01 d0                	add    %edx,%eax
  802d2c:	c1 e0 02             	shl    $0x2,%eax
  802d2f:	8d 75 e8             	lea    -0x18(%ebp),%esi
  802d32:	01 f0                	add    %esi,%eax
  802d34:	83 e8 3c             	sub    $0x3c,%eax
  802d37:	8b 30                	mov    (%eax),%esi
  802d39:	8b 55 e4             	mov    -0x1c(%ebp),%edx
  802d3c:	89 d0                	mov    %edx,%eax
  802d3e:	01 c0                	add    %eax,%eax
  802d40:	01 d0                	add    %edx,%eax
  802d42:	c1 e0 02             	shl    $0x2,%eax
  802d45:	8d 4d e8             	lea    -0x18(%ebp),%ecx
  802d48:	01 c8                	add    %ecx,%eax
  802d4a:	83 e8 42             	sub    $0x42,%eax
  802d4d:	0f b7 00             	movzwl (%eax),%eax
  802d50:	0f b7 c0             	movzwl %ax,%eax
  802d53:	83 ec 0c             	sub    $0xc,%esp
  802d56:	50                   	push   %eax
  802d57:	e8 5b 2c 00 00       	call   8059b7 <PAL_GetWord>
  802d5c:	83 c4 10             	add    $0x10,%esp
  802d5f:	83 ec 0c             	sub    $0xc,%esp
  802d62:	6a 00                	push   $0x0
  802d64:	6a 01                	push   $0x1
  802d66:	57                   	push   %edi
  802d67:	56                   	push   %esi
  802d68:	50                   	push   %eax
  802d69:	e8 22 2e 00 00       	call   805b90 <PAL_DrawText>
  802d6e:	83 c4 20             	add    $0x20,%esp
  802d71:	83 45 e4 01          	addl   $0x1,-0x1c(%ebp)
  802d75:	83 7d e4 04          	cmpl   $0x4,-0x1c(%ebp)
  802d79:	0f 8e 56 ff ff ff    	jle    802cd5 <PAL_BattleUIDrawMiscMenu+0xc1>
  802d7f:	90                   	nop
  802d80:	8d 65 f4             	lea    -0xc(%ebp),%esp
  802d83:	5b                   	pop    %ebx
  802d84:	5e                   	pop    %esi
  802d85:	5f                   	pop    %edi
  802d86:	5d                   	pop    %ebp
  802d87:	c3                   	ret    

00802d88 <PAL_BattleUIMiscMenuUpdate>:
  802d88:	55                   	push   %ebp
  802d89:	89 e5                	mov    %esp,%ebp
  802d8b:	53                   	push   %ebx
  802d8c:	83 ec 04             	sub    $0x4,%esp
  802d8f:	e8 9a d3 ff ff       	call   80012e <__x86.get_pc_thunk.bx>
  802d94:	81 c3 6c 82 04 00    	add    $0x4826c,%ebx
  802d9a:	8b 83 80 18 01 00    	mov    0x11880(%ebx),%eax
  802da0:	0f b7 c0             	movzwl %ax,%eax
  802da3:	83 ec 08             	sub    $0x8,%esp
  802da6:	6a 00                	push   $0x0
  802da8:	50                   	push   %eax
  802da9:	e8 66 fe ff ff       	call   802c14 <PAL_BattleUIDrawMiscMenu>
  802dae:	83 c4 10             	add    $0x10,%esp
  802db1:	c7 c0 38 3a 86 00    	mov    $0x863a38,%eax
  802db7:	8b 40 08             	mov    0x8(%eax),%eax
  802dba:	83 e0 18             	and    $0x18,%eax
  802dbd:	85 c0                	test   %eax,%eax
  802dbf:	74 25                	je     802de6 <PAL_BattleUIMiscMenuUpdate+0x5e>
  802dc1:	8b 83 80 18 01 00    	mov    0x11880(%ebx),%eax
  802dc7:	83 e8 01             	sub    $0x1,%eax
  802dca:	89 83 80 18 01 00    	mov    %eax,0x11880(%ebx)
  802dd0:	8b 83 80 18 01 00    	mov    0x11880(%ebx),%eax
  802dd6:	85 c0                	test   %eax,%eax
  802dd8:	79 74                	jns    802e4e <PAL_BattleUIMiscMenuUpdate+0xc6>
  802dda:	c7 83 80 18 01 00 04 	movl   $0x4,0x11880(%ebx)
  802de1:	00 00 00 
  802de4:	eb 68                	jmp    802e4e <PAL_BattleUIMiscMenuUpdate+0xc6>
  802de6:	c7 c0 38 3a 86 00    	mov    $0x863a38,%eax
  802dec:	8b 40 08             	mov    0x8(%eax),%eax
  802def:	83 e0 24             	and    $0x24,%eax
  802df2:	85 c0                	test   %eax,%eax
  802df4:	74 26                	je     802e1c <PAL_BattleUIMiscMenuUpdate+0x94>
  802df6:	8b 83 80 18 01 00    	mov    0x11880(%ebx),%eax
  802dfc:	83 c0 01             	add    $0x1,%eax
  802dff:	89 83 80 18 01 00    	mov    %eax,0x11880(%ebx)
  802e05:	8b 83 80 18 01 00    	mov    0x11880(%ebx),%eax
  802e0b:	83 f8 04             	cmp    $0x4,%eax
  802e0e:	7e 3e                	jle    802e4e <PAL_BattleUIMiscMenuUpdate+0xc6>
  802e10:	c7 83 80 18 01 00 00 	movl   $0x0,0x11880(%ebx)
  802e17:	00 00 00 
  802e1a:	eb 32                	jmp    802e4e <PAL_BattleUIMiscMenuUpdate+0xc6>
  802e1c:	c7 c0 38 3a 86 00    	mov    $0x863a38,%eax
  802e22:	8b 40 08             	mov    0x8(%eax),%eax
  802e25:	83 e0 02             	and    $0x2,%eax
  802e28:	85 c0                	test   %eax,%eax
  802e2a:	74 0b                	je     802e37 <PAL_BattleUIMiscMenuUpdate+0xaf>
  802e2c:	8b 83 80 18 01 00    	mov    0x11880(%ebx),%eax
  802e32:	83 c0 01             	add    $0x1,%eax
  802e35:	eb 1c                	jmp    802e53 <PAL_BattleUIMiscMenuUpdate+0xcb>
  802e37:	c7 c0 38 3a 86 00    	mov    $0x863a38,%eax
  802e3d:	8b 40 08             	mov    0x8(%eax),%eax
  802e40:	83 e0 01             	and    $0x1,%eax
  802e43:	85 c0                	test   %eax,%eax
  802e45:	74 07                	je     802e4e <PAL_BattleUIMiscMenuUpdate+0xc6>
  802e47:	b8 00 00 00 00       	mov    $0x0,%eax
  802e4c:	eb 05                	jmp    802e53 <PAL_BattleUIMiscMenuUpdate+0xcb>
  802e4e:	b8 ff ff ff ff       	mov    $0xffffffff,%eax
  802e53:	8b 5d fc             	mov    -0x4(%ebp),%ebx
  802e56:	c9                   	leave  
  802e57:	c3                   	ret    

00802e58 <PAL_BattleUIMiscItemSubMenuUpdate>:
  802e58:	55                   	push   %ebp
  802e59:	89 e5                	mov    %esp,%ebp
  802e5b:	57                   	push   %edi
  802e5c:	56                   	push   %esi
  802e5d:	53                   	push   %ebx
  802e5e:	83 ec 2c             	sub    $0x2c,%esp
  802e61:	e8 c8 d2 ff ff       	call   80012e <__x86.get_pc_thunk.bx>
  802e66:	81 c3 9a 81 04 00    	add    $0x4819a,%ebx
  802e6c:	66 c7 45 c8 00 00    	movw   $0x0,-0x38(%ebp)
  802e72:	66 c7 45 ca 17 00    	movw   $0x17,-0x36(%ebp)
  802e78:	c7 45 cc 01 00 00 00 	movl   $0x1,-0x34(%ebp)
  802e7f:	c7 45 d0 2c 00 3e 00 	movl   $0x3e002c,-0x30(%ebp)
  802e86:	66 c7 45 d4 01 00    	movw   $0x1,-0x2c(%ebp)
  802e8c:	66 c7 45 d6 18 00    	movw   $0x18,-0x2a(%ebp)
  802e92:	c7 45 d8 01 00 00 00 	movl   $0x1,-0x28(%ebp)
  802e99:	c7 45 dc 2c 00 50 00 	movl   $0x50002c,-0x24(%ebp)
  802ea0:	83 ec 08             	sub    $0x8,%esp
  802ea3:	6a 01                	push   $0x1
  802ea5:	6a 00                	push   $0x0
  802ea7:	e8 68 fd ff ff       	call   802c14 <PAL_BattleUIDrawMiscMenu>
  802eac:	83 c4 10             	add    $0x10,%esp
  802eaf:	83 ec 0c             	sub    $0xc,%esp
  802eb2:	6a 00                	push   $0x0
  802eb4:	6a 00                	push   $0x0
  802eb6:	6a 01                	push   $0x1
  802eb8:	6a 01                	push   $0x1
  802eba:	68 1e 00 32 00       	push   $0x32001e
  802ebf:	e8 5d 70 00 00       	call   809f21 <PAL_CreateBox>
  802ec4:	83 c4 20             	add    $0x20,%esp
  802ec7:	c7 45 e4 00 00 00 00 	movl   $0x0,-0x1c(%ebp)
  802ece:	e9 96 00 00 00       	jmp    802f69 <PAL_BattleUIMiscItemSubMenuUpdate+0x111>
  802ed3:	c6 45 e3 4f          	movb   $0x4f,-0x1d(%ebp)
  802ed7:	8b 83 84 18 01 00    	mov    0x11884(%ebx),%eax
  802edd:	39 45 e4             	cmp    %eax,-0x1c(%ebp)
  802ee0:	75 31                	jne    802f13 <PAL_BattleUIMiscItemSubMenuUpdate+0xbb>
  802ee2:	e8 81 e3 ff ff       	call   801268 <SDL_GetTicks>
  802ee7:	ba 1f 85 eb 51       	mov    $0x51eb851f,%edx
  802eec:	f7 e2                	mul    %edx
  802eee:	89 d1                	mov    %edx,%ecx
  802ef0:	c1 e9 05             	shr    $0x5,%ecx
  802ef3:	ba ab aa aa aa       	mov    $0xaaaaaaab,%edx
  802ef8:	89 c8                	mov    %ecx,%eax
  802efa:	f7 e2                	mul    %edx
  802efc:	c1 ea 02             	shr    $0x2,%edx
  802eff:	89 d0                	mov    %edx,%eax
  802f01:	01 c0                	add    %eax,%eax
  802f03:	01 d0                	add    %edx,%eax
  802f05:	01 c0                	add    %eax,%eax
  802f07:	29 c1                	sub    %eax,%ecx
  802f09:	89 ca                	mov    %ecx,%edx
  802f0b:	89 d0                	mov    %edx,%eax
  802f0d:	83 e8 07             	sub    $0x7,%eax
  802f10:	88 45 e3             	mov    %al,-0x1d(%ebp)
  802f13:	0f b6 7d e3          	movzbl -0x1d(%ebp),%edi
  802f17:	8b 55 e4             	mov    -0x1c(%ebp),%edx
  802f1a:	89 d0                	mov    %edx,%eax
  802f1c:	01 c0                	add    %eax,%eax
  802f1e:	01 d0                	add    %edx,%eax
  802f20:	c1 e0 02             	shl    $0x2,%eax
  802f23:	8d 75 e8             	lea    -0x18(%ebp),%esi
  802f26:	01 f0                	add    %esi,%eax
  802f28:	83 e8 18             	sub    $0x18,%eax
  802f2b:	8b 30                	mov    (%eax),%esi
  802f2d:	8b 55 e4             	mov    -0x1c(%ebp),%edx
  802f30:	89 d0                	mov    %edx,%eax
  802f32:	01 c0                	add    %eax,%eax
  802f34:	01 d0                	add    %edx,%eax
  802f36:	c1 e0 02             	shl    $0x2,%eax
  802f39:	8d 4d e8             	lea    -0x18(%ebp),%ecx
  802f3c:	01 c8                	add    %ecx,%eax
  802f3e:	83 e8 1e             	sub    $0x1e,%eax
  802f41:	0f b7 00             	movzwl (%eax),%eax
  802f44:	0f b7 c0             	movzwl %ax,%eax
  802f47:	83 ec 0c             	sub    $0xc,%esp
  802f4a:	50                   	push   %eax
  802f4b:	e8 67 2a 00 00       	call   8059b7 <PAL_GetWord>
  802f50:	83 c4 10             	add    $0x10,%esp
  802f53:	83 ec 0c             	sub    $0xc,%esp
  802f56:	6a 00                	push   $0x0
  802f58:	6a 01                	push   $0x1
  802f5a:	57                   	push   %edi
  802f5b:	56                   	push   %esi
  802f5c:	50                   	push   %eax
  802f5d:	e8 2e 2c 00 00       	call   805b90 <PAL_DrawText>
  802f62:	83 c4 20             	add    $0x20,%esp
  802f65:	83 45 e4 01          	addl   $0x1,-0x1c(%ebp)
  802f69:	83 7d e4 01          	cmpl   $0x1,-0x1c(%ebp)
  802f6d:	0f 8e 60 ff ff ff    	jle    802ed3 <PAL_BattleUIMiscItemSubMenuUpdate+0x7b>
  802f73:	c7 c0 38 3a 86 00    	mov    $0x863a38,%eax
  802f79:	8b 40 08             	mov    0x8(%eax),%eax
  802f7c:	83 e0 18             	and    $0x18,%eax
  802f7f:	85 c0                	test   %eax,%eax
  802f81:	74 0c                	je     802f8f <PAL_BattleUIMiscItemSubMenuUpdate+0x137>
  802f83:	c7 83 84 18 01 00 00 	movl   $0x0,0x11884(%ebx)
  802f8a:	00 00 00 
  802f8d:	eb 4e                	jmp    802fdd <PAL_BattleUIMiscItemSubMenuUpdate+0x185>
  802f8f:	c7 c0 38 3a 86 00    	mov    $0x863a38,%eax
  802f95:	8b 40 08             	mov    0x8(%eax),%eax
  802f98:	83 e0 24             	and    $0x24,%eax
  802f9b:	85 c0                	test   %eax,%eax
  802f9d:	74 0c                	je     802fab <PAL_BattleUIMiscItemSubMenuUpdate+0x153>
  802f9f:	c7 83 84 18 01 00 01 	movl   $0x1,0x11884(%ebx)
  802fa6:	00 00 00 
  802fa9:	eb 32                	jmp    802fdd <PAL_BattleUIMiscItemSubMenuUpdate+0x185>
  802fab:	c7 c0 38 3a 86 00    	mov    $0x863a38,%eax
  802fb1:	8b 40 08             	mov    0x8(%eax),%eax
  802fb4:	83 e0 02             	and    $0x2,%eax
  802fb7:	85 c0                	test   %eax,%eax
  802fb9:	74 0b                	je     802fc6 <PAL_BattleUIMiscItemSubMenuUpdate+0x16e>
  802fbb:	8b 83 84 18 01 00    	mov    0x11884(%ebx),%eax
  802fc1:	83 c0 01             	add    $0x1,%eax
  802fc4:	eb 1c                	jmp    802fe2 <PAL_BattleUIMiscItemSubMenuUpdate+0x18a>
  802fc6:	c7 c0 38 3a 86 00    	mov    $0x863a38,%eax
  802fcc:	8b 40 08             	mov    0x8(%eax),%eax
  802fcf:	83 e0 01             	and    $0x1,%eax
  802fd2:	85 c0                	test   %eax,%eax
  802fd4:	74 07                	je     802fdd <PAL_BattleUIMiscItemSubMenuUpdate+0x185>
  802fd6:	b8 00 00 00 00       	mov    $0x0,%eax
  802fdb:	eb 05                	jmp    802fe2 <PAL_BattleUIMiscItemSubMenuUpdate+0x18a>
  802fdd:	b8 ff ff ff ff       	mov    $0xffffffff,%eax
  802fe2:	8d 65 f4             	lea    -0xc(%ebp),%esp
  802fe5:	5b                   	pop    %ebx
  802fe6:	5e                   	pop    %esi
  802fe7:	5f                   	pop    %edi
  802fe8:	5d                   	pop    %ebp
  802fe9:	c3                   	ret    

00802fea <PAL_BattleUIShowText>:
  802fea:	55                   	push   %ebp
  802feb:	89 e5                	mov    %esp,%ebp
  802fed:	53                   	push   %ebx
  802fee:	83 ec 14             	sub    $0x14,%esp
  802ff1:	e8 38 d1 ff ff       	call   80012e <__x86.get_pc_thunk.bx>
  802ff6:	81 c3 0a 80 04 00    	add    $0x4800a,%ebx
  802ffc:	8b 45 0c             	mov    0xc(%ebp),%eax
  802fff:	66 89 45 f4          	mov    %ax,-0xc(%ebp)
  803003:	e8 60 e2 ff ff       	call   801268 <SDL_GetTicks>
  803008:	89 c2                	mov    %eax,%edx
  80300a:	c7 c0 20 32 86 00    	mov    $0x863220,%eax
  803010:	8b 80 ec 06 00 00    	mov    0x6ec(%eax),%eax
  803016:	39 c2                	cmp    %eax,%edx
  803018:	73 2e                	jae    803048 <PAL_BattleUIShowText+0x5e>
  80301a:	83 ec 08             	sub    $0x8,%esp
  80301d:	ff 75 08             	pushl  0x8(%ebp)
  803020:	c7 c0 20 32 86 00    	mov    $0x863220,%eax
  803026:	8d 80 ec 05 00 00    	lea    0x5ec(%eax),%eax
  80302c:	50                   	push   %eax
  80302d:	e8 ee fa 02 00       	call   832b20 <strcpy>
  803032:	83 c4 10             	add    $0x10,%esp
  803035:	c7 c0 20 32 86 00    	mov    $0x863220,%eax
  80303b:	0f b7 55 f4          	movzwl -0xc(%ebp),%edx
  80303f:	66 89 90 f0 06 00 00 	mov    %dx,0x6f0(%eax)
  803046:	eb 34                	jmp    80307c <PAL_BattleUIShowText+0x92>
  803048:	83 ec 08             	sub    $0x8,%esp
  80304b:	ff 75 08             	pushl  0x8(%ebp)
  80304e:	c7 c0 20 32 86 00    	mov    $0x863220,%eax
  803054:	8d 80 ec 04 00 00    	lea    0x4ec(%eax),%eax
  80305a:	50                   	push   %eax
  80305b:	e8 c0 fa 02 00       	call   832b20 <strcpy>
  803060:	83 c4 10             	add    $0x10,%esp
  803063:	e8 00 e2 ff ff       	call   801268 <SDL_GetTicks>
  803068:	89 c2                	mov    %eax,%edx
  80306a:	0f b7 45 f4          	movzwl -0xc(%ebp),%eax
  80306e:	01 c2                	add    %eax,%edx
  803070:	c7 c0 20 32 86 00    	mov    $0x863220,%eax
  803076:	89 90 ec 06 00 00    	mov    %edx,0x6ec(%eax)
  80307c:	90                   	nop
  80307d:	8b 5d fc             	mov    -0x4(%ebp),%ebx
  803080:	c9                   	leave  
  803081:	c3                   	ret    

00803082 <PAL_BattleUIPlayerReady>:
  803082:	55                   	push   %ebp
  803083:	89 e5                	mov    %esp,%ebp
  803085:	53                   	push   %ebx
  803086:	83 ec 24             	sub    $0x24,%esp
  803089:	e8 9c d0 ff ff       	call   80012a <__x86.get_pc_thunk.ax>
  80308e:	05 72 7f 04 00       	add    $0x47f72,%eax
  803093:	8b 55 08             	mov    0x8(%ebp),%edx
  803096:	66 89 55 e4          	mov    %dx,-0x1c(%ebp)
  80309a:	c7 c2 cc 31 86 00    	mov    $0x8631cc,%edx
  8030a0:	8b 1a                	mov    (%edx),%ebx
  8030a2:	0f b7 4d e4          	movzwl -0x1c(%ebp),%ecx
  8030a6:	89 ca                	mov    %ecx,%edx
  8030a8:	c1 e2 02             	shl    $0x2,%edx
  8030ab:	01 ca                	add    %ecx,%edx
  8030ad:	01 d2                	add    %edx,%edx
  8030af:	01 da                	add    %ebx,%edx
  8030b1:	81 c2 f8 43 00 00    	add    $0x43f8,%edx
  8030b7:	0f b7 12             	movzwl (%edx),%edx
  8030ba:	66 89 55 f6          	mov    %dx,-0xa(%ebp)
  8030be:	c7 c2 20 32 86 00    	mov    $0x863220,%edx
  8030c4:	0f b7 4d e4          	movzwl -0x1c(%ebp),%ecx
  8030c8:	66 89 8a f2 06 00 00 	mov    %cx,0x6f2(%edx)
  8030cf:	c7 c2 20 32 86 00    	mov    $0x863220,%edx
  8030d5:	c7 82 e4 04 00 00 01 	movl   $0x1,0x4e4(%edx)
  8030dc:	00 00 00 
  8030df:	c7 c2 20 32 86 00    	mov    $0x863220,%edx
  8030e5:	66 c7 82 f4 06 00 00 	movw   $0x0,0x6f4(%edx)
  8030ec:	00 00 
  8030ee:	c7 c2 20 32 86 00    	mov    $0x863220,%edx
  8030f4:	c7 82 e8 04 00 00 00 	movl   $0x0,0x4e8(%edx)
  8030fb:	00 00 00 
  8030fe:	c7 c2 cc 31 86 00    	mov    $0x8631cc,%edx
  803104:	8b 1a                	mov    (%edx),%ebx
  803106:	0f b7 4d f6          	movzwl -0xa(%ebp),%ecx
  80310a:	89 ca                	mov    %ecx,%edx
  80310c:	c1 e2 03             	shl    $0x3,%edx
  80310f:	01 ca                	add    %ecx,%edx
  803111:	01 d2                	add    %edx,%edx
  803113:	01 da                	add    %ebx,%edx
  803115:	81 c2 88 43 00 00    	add    $0x4388,%edx
  80311b:	0f b7 12             	movzwl (%edx),%edx
  80311e:	66 85 d2             	test   %dx,%dx
  803121:	75 7d                	jne    8031a0 <PAL_BattleUIPlayerReady+0x11e>
  803123:	c7 c2 cc 31 86 00    	mov    $0x8631cc,%edx
  803129:	8b 1a                	mov    (%edx),%ebx
  80312b:	0f b7 4d f6          	movzwl -0xa(%ebp),%ecx
  80312f:	89 ca                	mov    %ecx,%edx
  803131:	c1 e2 03             	shl    $0x3,%edx
  803134:	01 ca                	add    %ecx,%edx
  803136:	01 d2                	add    %edx,%edx
  803138:	01 da                	add    %ebx,%edx
  80313a:	81 c2 84 43 00 00    	add    $0x4384,%edx
  803140:	0f b7 12             	movzwl (%edx),%edx
  803143:	66 85 d2             	test   %dx,%dx
  803146:	75 58                	jne    8031a0 <PAL_BattleUIPlayerReady+0x11e>
  803148:	c7 c2 cc 31 86 00    	mov    $0x8631cc,%edx
  80314e:	8b 1a                	mov    (%edx),%ebx
  803150:	0f b7 4d f6          	movzwl -0xa(%ebp),%ecx
  803154:	89 ca                	mov    %ecx,%edx
  803156:	c1 e2 03             	shl    $0x3,%edx
  803159:	01 ca                	add    %ecx,%edx
  80315b:	01 d2                	add    %edx,%edx
  80315d:	01 da                	add    %ebx,%edx
  80315f:	81 c2 80 43 00 00    	add    $0x4380,%edx
  803165:	0f b7 12             	movzwl (%edx),%edx
  803168:	66 85 d2             	test   %dx,%dx
  80316b:	75 33                	jne    8031a0 <PAL_BattleUIPlayerReady+0x11e>
  80316d:	c7 c2 20 32 86 00    	mov    $0x863220,%edx
  803173:	8b 92 00 07 00 00    	mov    0x700(%edx),%edx
  803179:	85 d2                	test   %edx,%edx
  80317b:	75 23                	jne    8031a0 <PAL_BattleUIPlayerReady+0x11e>
  80317d:	c7 c2 cc 31 86 00    	mov    $0x8631cc,%edx
  803183:	8b 12                	mov    (%edx),%edx
  803185:	8b 92 dc 2a 00 00    	mov    0x2adc(%edx),%edx
  80318b:	85 d2                	test   %edx,%edx
  80318d:	75 11                	jne    8031a0 <PAL_BattleUIPlayerReady+0x11e>
  80318f:	83 ec 08             	sub    $0x8,%esp
  803192:	6a 01                	push   $0x1
  803194:	6a 4e                	push   $0x4e
  803196:	89 c3                	mov    %eax,%ebx
  803198:	e8 a2 16 02 00       	call   82483f <SOUND_PlayChannel>
  80319d:	83 c4 10             	add    $0x10,%esp
  8031a0:	90                   	nop
  8031a1:	8b 5d fc             	mov    -0x4(%ebp),%ebx
  8031a4:	c9                   	leave  
  8031a5:	c3                   	ret    

008031a6 <PAL_BattleUIUseItem>:
  8031a6:	55                   	push   %ebp
  8031a7:	89 e5                	mov    %esp,%ebp
  8031a9:	53                   	push   %ebx
  8031aa:	83 ec 14             	sub    $0x14,%esp
  8031ad:	e8 7c cf ff ff       	call   80012e <__x86.get_pc_thunk.bx>
  8031b2:	81 c3 4e 7e 04 00    	add    $0x47e4e,%ebx
  8031b8:	e8 f4 e3 ff ff       	call   8015b1 <PAL_ItemSelectMenuUpdate>
  8031bd:	66 89 45 f6          	mov    %ax,-0xa(%ebp)
  8031c1:	66 83 7d f6 ff       	cmpw   $0xffff,-0xa(%ebp)
  8031c6:	0f 84 a2 00 00 00    	je     80326e <PAL_BattleUIUseItem+0xc8>
  8031cc:	66 83 7d f6 00       	cmpw   $0x0,-0xa(%ebp)
  8031d1:	0f 84 87 00 00 00    	je     80325e <PAL_BattleUIUseItem+0xb8>
  8031d7:	c7 c0 20 32 86 00    	mov    $0x863220,%eax
  8031dd:	66 c7 80 fa 06 00 00 	movw   $0x7,0x6fa(%eax)
  8031e4:	07 00 
  8031e6:	c7 c0 20 32 86 00    	mov    $0x863220,%eax
  8031ec:	0f b7 55 f6          	movzwl -0xa(%ebp),%edx
  8031f0:	66 89 90 fc 06 00 00 	mov    %dx,0x6fc(%eax)
  8031f7:	c7 c0 cc 31 86 00    	mov    $0x8631cc,%eax
  8031fd:	8b 08                	mov    (%eax),%ecx
  8031ff:	0f b7 55 f6          	movzwl -0xa(%ebp),%edx
  803203:	89 d0                	mov    %edx,%eax
  803205:	01 c0                	add    %eax,%eax
  803207:	01 d0                	add    %edx,%eax
  803209:	c1 e0 02             	shl    $0x2,%eax
  80320c:	01 c8                	add    %ecx,%eax
  80320e:	05 92 09 00 00       	add    $0x992,%eax
  803213:	0f b7 00             	movzwl (%eax),%eax
  803216:	0f b7 c0             	movzwl %ax,%eax
  803219:	83 e0 10             	and    $0x10,%eax
  80321c:	85 c0                	test   %eax,%eax
  80321e:	74 12                	je     803232 <PAL_BattleUIUseItem+0x8c>
  803220:	c7 c0 20 32 86 00    	mov    $0x863220,%eax
  803226:	c7 80 e4 04 00 00 05 	movl   $0x5,0x4e4(%eax)
  80322d:	00 00 00 
  803230:	eb 3c                	jmp    80326e <PAL_BattleUIUseItem+0xc8>
  803232:	c7 c0 20 32 86 00    	mov    $0x863220,%eax
  803238:	0f b7 90 f2 06 00 00 	movzwl 0x6f2(%eax),%edx
  80323f:	c7 c0 20 32 86 00    	mov    $0x863220,%eax
  803245:	66 89 90 f6 06 00 00 	mov    %dx,0x6f6(%eax)
  80324c:	c7 c0 20 32 86 00    	mov    $0x863220,%eax
  803252:	c7 80 e4 04 00 00 03 	movl   $0x3,0x4e4(%eax)
  803259:	00 00 00 
  80325c:	eb 10                	jmp    80326e <PAL_BattleUIUseItem+0xc8>
  80325e:	c7 c0 20 32 86 00    	mov    $0x863220,%eax
  803264:	c7 80 e8 04 00 00 00 	movl   $0x0,0x4e8(%eax)
  80326b:	00 00 00 
  80326e:	90                   	nop
  80326f:	83 c4 14             	add    $0x14,%esp
  803272:	5b                   	pop    %ebx
  803273:	5d                   	pop    %ebp
  803274:	c3                   	ret    

00803275 <PAL_BattleUIThrowItem>:
  803275:	55                   	push   %ebp
  803276:	89 e5                	mov    %esp,%ebp
  803278:	53                   	push   %ebx
  803279:	83 ec 14             	sub    $0x14,%esp
  80327c:	e8 ad ce ff ff       	call   80012e <__x86.get_pc_thunk.bx>
  803281:	81 c3 7f 7d 04 00    	add    $0x47d7f,%ebx
  803287:	e8 25 e3 ff ff       	call   8015b1 <PAL_ItemSelectMenuUpdate>
  80328c:	66 89 45 f6          	mov    %ax,-0xa(%ebp)
  803290:	66 83 7d f6 ff       	cmpw   $0xffff,-0xa(%ebp)
  803295:	0f 84 a2 00 00 00    	je     80333d <PAL_BattleUIThrowItem+0xc8>
  80329b:	66 83 7d f6 00       	cmpw   $0x0,-0xa(%ebp)
  8032a0:	0f 84 87 00 00 00    	je     80332d <PAL_BattleUIThrowItem+0xb8>
  8032a6:	c7 c0 20 32 86 00    	mov    $0x863220,%eax
  8032ac:	66 c7 80 fa 06 00 00 	movw   $0x6,0x6fa(%eax)
  8032b3:	06 00 
  8032b5:	c7 c0 20 32 86 00    	mov    $0x863220,%eax
  8032bb:	0f b7 55 f6          	movzwl -0xa(%ebp),%edx
  8032bf:	66 89 90 fc 06 00 00 	mov    %dx,0x6fc(%eax)
  8032c6:	c7 c0 cc 31 86 00    	mov    $0x8631cc,%eax
  8032cc:	8b 08                	mov    (%eax),%ecx
  8032ce:	0f b7 55 f6          	movzwl -0xa(%ebp),%edx
  8032d2:	89 d0                	mov    %edx,%eax
  8032d4:	01 c0                	add    %eax,%eax
  8032d6:	01 d0                	add    %edx,%eax
  8032d8:	c1 e0 02             	shl    $0x2,%eax
  8032db:	01 c8                	add    %ecx,%eax
  8032dd:	05 92 09 00 00       	add    $0x992,%eax
  8032e2:	0f b7 00             	movzwl (%eax),%eax
  8032e5:	0f b7 c0             	movzwl %ax,%eax
  8032e8:	83 e0 10             	and    $0x10,%eax
  8032eb:	85 c0                	test   %eax,%eax
  8032ed:	74 12                	je     803301 <PAL_BattleUIThrowItem+0x8c>
  8032ef:	c7 c0 20 32 86 00    	mov    $0x863220,%eax
  8032f5:	c7 80 e4 04 00 00 04 	movl   $0x4,0x4e4(%eax)
  8032fc:	00 00 00 
  8032ff:	eb 3c                	jmp    80333d <PAL_BattleUIThrowItem+0xc8>
  803301:	c7 c0 20 32 86 00    	mov    $0x863220,%eax
  803307:	0f b7 90 f8 06 00 00 	movzwl 0x6f8(%eax),%edx
  80330e:	c7 c0 20 32 86 00    	mov    $0x863220,%eax
  803314:	66 89 90 f6 06 00 00 	mov    %dx,0x6f6(%eax)
  80331b:	c7 c0 20 32 86 00    	mov    $0x863220,%eax
  803321:	c7 80 e4 04 00 00 02 	movl   $0x2,0x4e4(%eax)
  803328:	00 00 00 
  80332b:	eb 10                	jmp    80333d <PAL_BattleUIThrowItem+0xc8>
  80332d:	c7 c0 20 32 86 00    	mov    $0x863220,%eax
  803333:	c7 80 e8 04 00 00 00 	movl   $0x0,0x4e8(%eax)
  80333a:	00 00 00 
  80333d:	90                   	nop
  80333e:	83 c4 14             	add    $0x14,%esp
  803341:	5b                   	pop    %ebx
  803342:	5d                   	pop    %ebp
  803343:	c3                   	ret    

00803344 <PAL_BattleUIPickAutoMagic>:
  803344:	55                   	push   %ebp
  803345:	89 e5                	mov    %esp,%ebp
  803347:	56                   	push   %esi
  803348:	53                   	push   %ebx
  803349:	83 ec 30             	sub    $0x30,%esp
  80334c:	e8 dd cd ff ff       	call   80012e <__x86.get_pc_thunk.bx>
  803351:	81 c3 af 7c 04 00    	add    $0x47caf,%ebx
  803357:	8b 55 08             	mov    0x8(%ebp),%edx
  80335a:	8b 45 0c             	mov    0xc(%ebp),%eax
  80335d:	66 89 55 d4          	mov    %dx,-0x2c(%ebp)
  803361:	66 89 45 d0          	mov    %ax,-0x30(%ebp)
  803365:	66 c7 45 f6 00 00    	movw   $0x0,-0xa(%ebp)
  80336b:	c7 45 ec 00 00 00 00 	movl   $0x0,-0x14(%ebp)
  803372:	c7 c0 cc 31 86 00    	mov    $0x8631cc,%eax
  803378:	8b 08                	mov    (%eax),%ecx
  80337a:	0f b7 55 d4          	movzwl -0x2c(%ebp),%edx
  80337e:	89 d0                	mov    %edx,%eax
  803380:	c1 e0 03             	shl    $0x3,%eax
  803383:	01 d0                	add    %edx,%eax
  803385:	01 c0                	add    %eax,%eax
  803387:	01 c8                	add    %ecx,%eax
  803389:	05 86 43 00 00       	add    $0x4386,%eax
  80338e:	0f b7 00             	movzwl (%eax),%eax
  803391:	66 85 c0             	test   %ax,%ax
  803394:	74 0a                	je     8033a0 <PAL_BattleUIPickAutoMagic+0x5c>
  803396:	b8 00 00 00 00       	mov    $0x0,%eax
  80339b:	e9 40 01 00 00       	jmp    8034e0 <PAL_BattleUIPickAutoMagic+0x19c>
  8033a0:	c7 45 f0 00 00 00 00 	movl   $0x0,-0x10(%ebp)
  8033a7:	e9 26 01 00 00       	jmp    8034d2 <PAL_BattleUIPickAutoMagic+0x18e>
  8033ac:	c7 c0 cc 31 86 00    	mov    $0x8631cc,%eax
  8033b2:	8b 08                	mov    (%eax),%ecx
  8033b4:	0f b7 75 d4          	movzwl -0x2c(%ebp),%esi
  8033b8:	8b 55 f0             	mov    -0x10(%ebp),%edx
  8033bb:	89 d0                	mov    %edx,%eax
  8033bd:	01 c0                	add    %eax,%eax
  8033bf:	01 d0                	add    %edx,%eax
  8033c1:	01 c0                	add    %eax,%eax
  8033c3:	01 f0                	add    %esi,%eax
  8033c5:	05 a0 13 00 00       	add    $0x13a0,%eax
  8033ca:	0f b7 44 41 08       	movzwl 0x8(%ecx,%eax,2),%eax
  8033cf:	66 89 45 ea          	mov    %ax,-0x16(%ebp)
  8033d3:	66 83 7d ea 00       	cmpw   $0x0,-0x16(%ebp)
  8033d8:	0f 84 ec 00 00 00    	je     8034ca <PAL_BattleUIPickAutoMagic+0x186>
  8033de:	c7 c0 cc 31 86 00    	mov    $0x8631cc,%eax
  8033e4:	8b 08                	mov    (%eax),%ecx
  8033e6:	0f b7 55 ea          	movzwl -0x16(%ebp),%edx
  8033ea:	89 d0                	mov    %edx,%eax
  8033ec:	01 c0                	add    %eax,%eax
  8033ee:	01 d0                	add    %edx,%eax
  8033f0:	c1 e0 02             	shl    $0x2,%eax
  8033f3:	01 c8                	add    %ecx,%eax
  8033f5:	05 88 09 00 00       	add    $0x988,%eax
  8033fa:	0f b7 00             	movzwl (%eax),%eax
  8033fd:	66 89 45 e8          	mov    %ax,-0x18(%ebp)
  803401:	c7 c0 cc 31 86 00    	mov    $0x8631cc,%eax
  803407:	8b 00                	mov    (%eax),%eax
  803409:	8b 80 4c 29 00 00    	mov    0x294c(%eax),%eax
  80340f:	0f b7 55 e8          	movzwl -0x18(%ebp),%edx
  803413:	c1 e2 05             	shl    $0x5,%edx
  803416:	01 d0                	add    %edx,%eax
  803418:	0f b7 40 18          	movzwl 0x18(%eax),%eax
  80341c:	66 83 f8 01          	cmp    $0x1,%ax
  803420:	0f 84 a7 00 00 00    	je     8034cd <PAL_BattleUIPickAutoMagic+0x189>
  803426:	c7 c0 cc 31 86 00    	mov    $0x8631cc,%eax
  80342c:	8b 00                	mov    (%eax),%eax
  80342e:	8b 80 4c 29 00 00    	mov    0x294c(%eax),%eax
  803434:	0f b7 55 e8          	movzwl -0x18(%ebp),%edx
  803438:	c1 e2 05             	shl    $0x5,%edx
  80343b:	01 d0                	add    %edx,%eax
  80343d:	0f b7 50 18          	movzwl 0x18(%eax),%edx
  803441:	c7 c0 cc 31 86 00    	mov    $0x8631cc,%eax
  803447:	8b 00                	mov    (%eax),%eax
  803449:	0f b7 4d d4          	movzwl -0x2c(%ebp),%ecx
  80344d:	81 c1 18 13 00 00    	add    $0x1318,%ecx
  803453:	0f b7 44 48 10       	movzwl 0x10(%eax,%ecx,2),%eax
  803458:	66 39 c2             	cmp    %ax,%dx
  80345b:	77 70                	ja     8034cd <PAL_BattleUIPickAutoMagic+0x189>
  80345d:	c7 c0 cc 31 86 00    	mov    $0x8631cc,%eax
  803463:	8b 00                	mov    (%eax),%eax
  803465:	8b 80 4c 29 00 00    	mov    0x294c(%eax),%eax
  80346b:	0f b7 55 e8          	movzwl -0x18(%ebp),%edx
  80346f:	c1 e2 05             	shl    $0x5,%edx
  803472:	01 d0                	add    %edx,%eax
  803474:	0f b7 40 1a          	movzwl 0x1a(%eax),%eax
  803478:	66 85 c0             	test   %ax,%ax
  80347b:	7e 50                	jle    8034cd <PAL_BattleUIPickAutoMagic+0x189>
  80347d:	c7 c0 cc 31 86 00    	mov    $0x8631cc,%eax
  803483:	8b 00                	mov    (%eax),%eax
  803485:	8b 80 4c 29 00 00    	mov    0x294c(%eax),%eax
  80348b:	0f b7 55 e8          	movzwl -0x18(%ebp),%edx
  80348f:	c1 e2 05             	shl    $0x5,%edx
  803492:	01 d0                	add    %edx,%eax
  803494:	0f b7 40 1a          	movzwl 0x1a(%eax),%eax
  803498:	0f bf f0             	movswl %ax,%esi
  80349b:	0f b7 45 d0          	movzwl -0x30(%ebp),%eax
  80349f:	83 ec 08             	sub    $0x8,%esp
  8034a2:	50                   	push   %eax
  8034a3:	6a 00                	push   $0x0
  8034a5:	e8 f3 3a 02 00       	call   826f9d <RandomLong>
  8034aa:	83 c4 10             	add    $0x10,%esp
  8034ad:	01 f0                	add    %esi,%eax
  8034af:	89 45 e4             	mov    %eax,-0x1c(%ebp)
  8034b2:	8b 45 e4             	mov    -0x1c(%ebp),%eax
  8034b5:	3b 45 ec             	cmp    -0x14(%ebp),%eax
  8034b8:	7e 14                	jle    8034ce <PAL_BattleUIPickAutoMagic+0x18a>
  8034ba:	8b 45 e4             	mov    -0x1c(%ebp),%eax
  8034bd:	89 45 ec             	mov    %eax,-0x14(%ebp)
  8034c0:	0f b7 45 ea          	movzwl -0x16(%ebp),%eax
  8034c4:	66 89 45 f6          	mov    %ax,-0xa(%ebp)
  8034c8:	eb 04                	jmp    8034ce <PAL_BattleUIPickAutoMagic+0x18a>
  8034ca:	90                   	nop
  8034cb:	eb 01                	jmp    8034ce <PAL_BattleUIPickAutoMagic+0x18a>
  8034cd:	90                   	nop
  8034ce:	83 45 f0 01          	addl   $0x1,-0x10(%ebp)
  8034d2:	83 7d f0 1f          	cmpl   $0x1f,-0x10(%ebp)
  8034d6:	0f 8e d0 fe ff ff    	jle    8033ac <PAL_BattleUIPickAutoMagic+0x68>
  8034dc:	0f b7 45 f6          	movzwl -0xa(%ebp),%eax
  8034e0:	8d 65 f8             	lea    -0x8(%ebp),%esp
  8034e3:	5b                   	pop    %ebx
  8034e4:	5e                   	pop    %esi
  8034e5:	5d                   	pop    %ebp
  8034e6:	c3                   	ret    

008034e7 <PAL_BattleUIUpdate>:
  8034e7:	55                   	push   %ebp
  8034e8:	89 e5                	mov    %esp,%ebp
  8034ea:	57                   	push   %edi
  8034eb:	56                   	push   %esi
  8034ec:	53                   	push   %ebx
  8034ed:	83 ec 6c             	sub    $0x6c,%esp
  8034f0:	e8 39 cc ff ff       	call   80012e <__x86.get_pc_thunk.bx>
  8034f5:	81 c3 0b 7b 04 00    	add    $0x47b0b,%ebx
  8034fb:	8b 83 88 18 01 00    	mov    0x11888(%ebx),%eax
  803501:	83 c0 01             	add    $0x1,%eax
  803504:	89 83 88 18 01 00    	mov    %eax,0x11888(%ebx)
  80350a:	c7 c0 20 32 86 00    	mov    $0x863220,%eax
  803510:	8b 80 00 07 00 00    	mov    0x700(%eax),%eax
  803516:	85 c0                	test   %eax,%eax
  803518:	74 58                	je     803572 <PAL_BattleUIUpdate+0x8b>
  80351a:	c7 c0 cc 31 86 00    	mov    $0x8631cc,%eax
  803520:	8b 00                	mov    (%eax),%eax
  803522:	8b 80 dc 2a 00 00    	mov    0x2adc(%eax),%eax
  803528:	85 c0                	test   %eax,%eax
  80352a:	75 46                	jne    803572 <PAL_BattleUIUpdate+0x8b>
  80352c:	c7 c0 38 3a 86 00    	mov    $0x863a38,%eax
  803532:	8b 40 08             	mov    0x8(%eax),%eax
  803535:	83 e0 01             	and    $0x1,%eax
  803538:	85 c0                	test   %eax,%eax
  80353a:	74 12                	je     80354e <PAL_BattleUIUpdate+0x67>
  80353c:	c7 c0 20 32 86 00    	mov    $0x863220,%eax
  803542:	c7 80 00 07 00 00 00 	movl   $0x0,0x700(%eax)
  803549:	00 00 00 
  80354c:	eb 24                	jmp    803572 <PAL_BattleUIUpdate+0x8b>
  80354e:	83 ec 0c             	sub    $0xc,%esp
  803551:	6a 38                	push   $0x38
  803553:	e8 5f 24 00 00       	call   8059b7 <PAL_GetWord>
  803558:	83 c4 10             	add    $0x10,%esp
  80355b:	83 ec 0c             	sub    $0xc,%esp
  80355e:	6a 00                	push   $0x0
  803560:	6a 01                	push   $0x1
  803562:	6a 2c                	push   $0x2c
  803564:	68 18 01 0a 00       	push   $0xa0118
  803569:	50                   	push   %eax
  80356a:	e8 21 26 00 00       	call   805b90 <PAL_DrawText>
  80356f:	83 c4 20             	add    $0x20,%esp
  803572:	c7 c0 cc 31 86 00    	mov    $0x8631cc,%eax
  803578:	8b 00                	mov    (%eax),%eax
  80357a:	8b 80 dc 2a 00 00    	mov    0x2adc(%eax),%eax
  803580:	85 c0                	test   %eax,%eax
  803582:	0f 84 58 01 00 00    	je     8036e0 <PAL_BattleUIUpdate+0x1f9>
  803588:	e8 67 7b 01 00       	call   81b0f4 <PAL_BattlePlayerCheckReady>
  80358d:	c7 45 e4 00 00 00 00 	movl   $0x0,-0x1c(%ebp)
  803594:	eb 30                	jmp    8035c6 <PAL_BattleUIUpdate+0xdf>
  803596:	c7 c2 20 32 86 00    	mov    $0x863220,%edx
  80359c:	8b 45 e4             	mov    -0x1c(%ebp),%eax
  80359f:	6b c0 3c             	imul   $0x3c,%eax,%eax
  8035a2:	01 d0                	add    %edx,%eax
  8035a4:	83 c0 20             	add    $0x20,%eax
  8035a7:	8b 00                	mov    (%eax),%eax
  8035a9:	83 f8 01             	cmp    $0x1,%eax
  8035ac:	75 14                	jne    8035c2 <PAL_BattleUIUpdate+0xdb>
  8035ae:	8b 45 e4             	mov    -0x1c(%ebp),%eax
  8035b1:	0f b7 c0             	movzwl %ax,%eax
  8035b4:	83 ec 0c             	sub    $0xc,%esp
  8035b7:	50                   	push   %eax
  8035b8:	e8 c5 fa ff ff       	call   803082 <PAL_BattleUIPlayerReady>
  8035bd:	83 c4 10             	add    $0x10,%esp
  8035c0:	eb 1b                	jmp    8035dd <PAL_BattleUIUpdate+0xf6>
  8035c2:	83 45 e4 01          	addl   $0x1,-0x1c(%ebp)
  8035c6:	c7 c0 cc 31 86 00    	mov    $0x8631cc,%eax
  8035cc:	8b 00                	mov    (%eax),%eax
  8035ce:	0f b7 80 f6 43 00 00 	movzwl 0x43f6(%eax),%eax
  8035d5:	0f b7 c0             	movzwl %ax,%eax
  8035d8:	3b 45 e4             	cmp    -0x1c(%ebp),%eax
  8035db:	7d b9                	jge    803596 <PAL_BattleUIUpdate+0xaf>
  8035dd:	c7 c0 20 32 86 00    	mov    $0x863220,%eax
  8035e3:	8b 80 e4 04 00 00    	mov    0x4e4(%eax),%eax
  8035e9:	85 c0                	test   %eax,%eax
  8035eb:	0f 84 01 1d 00 00    	je     8052f2 <.L127+0x1b8>
  8035f1:	c7 c0 cc 31 86 00    	mov    $0x8631cc,%eax
  8035f7:	8b 08                	mov    (%eax),%ecx
  8035f9:	c7 c0 20 32 86 00    	mov    $0x863220,%eax
  8035ff:	0f b7 80 f2 06 00 00 	movzwl 0x6f2(%eax),%eax
  803606:	0f b7 d0             	movzwl %ax,%edx
  803609:	89 d0                	mov    %edx,%eax
  80360b:	c1 e0 02             	shl    $0x2,%eax
  80360e:	01 d0                	add    %edx,%eax
  803610:	01 c0                	add    %eax,%eax
  803612:	01 c8                	add    %ecx,%eax
  803614:	05 f8 43 00 00       	add    $0x43f8,%eax
  803619:	0f b7 00             	movzwl (%eax),%eax
  80361c:	0f b7 c0             	movzwl %ax,%eax
  80361f:	83 ec 08             	sub    $0x8,%esp
  803622:	68 0f 27 00 00       	push   $0x270f
  803627:	50                   	push   %eax
  803628:	e8 17 fd ff ff       	call   803344 <PAL_BattleUIPickAutoMagic>
  80362d:	83 c4 10             	add    $0x10,%esp
  803630:	66 89 45 d4          	mov    %ax,-0x2c(%ebp)
  803634:	66 83 7d d4 00       	cmpw   $0x0,-0x2c(%ebp)
  803639:	75 25                	jne    803660 <PAL_BattleUIUpdate+0x179>
  80363b:	c7 c0 20 32 86 00    	mov    $0x863220,%eax
  803641:	66 c7 80 fa 06 00 00 	movw   $0x2,0x6fa(%eax)
  803648:	02 00 
  80364a:	e8 11 5d 01 00       	call   819360 <PAL_BattleSelectAutoTarget>
  80364f:	89 c2                	mov    %eax,%edx
  803651:	c7 c0 20 32 86 00    	mov    $0x863220,%eax
  803657:	66 89 90 f6 06 00 00 	mov    %dx,0x6f6(%eax)
  80365e:	eb 6e                	jmp    8036ce <PAL_BattleUIUpdate+0x1e7>
  803660:	c7 c0 20 32 86 00    	mov    $0x863220,%eax
  803666:	66 c7 80 fa 06 00 00 	movw   $0x3,0x6fa(%eax)
  80366d:	03 00 
  80366f:	c7 c0 20 32 86 00    	mov    $0x863220,%eax
  803675:	0f b7 55 d4          	movzwl -0x2c(%ebp),%edx
  803679:	66 89 90 fc 06 00 00 	mov    %dx,0x6fc(%eax)
  803680:	c7 c0 cc 31 86 00    	mov    $0x8631cc,%eax
  803686:	8b 08                	mov    (%eax),%ecx
  803688:	0f b7 55 d4          	movzwl -0x2c(%ebp),%edx
  80368c:	89 d0                	mov    %edx,%eax
  80368e:	01 c0                	add    %eax,%eax
  803690:	01 d0                	add    %edx,%eax
  803692:	c1 e0 02             	shl    $0x2,%eax
  803695:	01 c8                	add    %ecx,%eax
  803697:	05 92 09 00 00       	add    $0x992,%eax
  80369c:	0f b7 00             	movzwl (%eax),%eax
  80369f:	0f b7 c0             	movzwl %ax,%eax
  8036a2:	83 e0 10             	and    $0x10,%eax
  8036a5:	85 c0                	test   %eax,%eax
  8036a7:	74 11                	je     8036ba <PAL_BattleUIUpdate+0x1d3>
  8036a9:	c7 c0 20 32 86 00    	mov    $0x863220,%eax
  8036af:	66 c7 80 f6 06 00 00 	movw   $0xffff,0x6f6(%eax)
  8036b6:	ff ff 
  8036b8:	eb 14                	jmp    8036ce <PAL_BattleUIUpdate+0x1e7>
  8036ba:	e8 a1 5c 01 00       	call   819360 <PAL_BattleSelectAutoTarget>
  8036bf:	89 c2                	mov    %eax,%edx
  8036c1:	c7 c0 20 32 86 00    	mov    $0x863220,%eax
  8036c7:	66 89 90 f6 06 00 00 	mov    %dx,0x6f6(%eax)
  8036ce:	83 ec 0c             	sub    $0xc,%esp
  8036d1:	6a 00                	push   $0x0
  8036d3:	e8 ef 86 01 00       	call   81bdc7 <PAL_BattleCommitAction>
  8036d8:	83 c4 10             	add    $0x10,%esp
  8036db:	e9 12 1c 00 00       	jmp    8052f2 <.L127+0x1b8>
  8036e0:	c7 c0 38 3a 86 00    	mov    $0x863a38,%eax
  8036e6:	8b 40 08             	mov    0x8(%eax),%eax
  8036e9:	25 00 02 00 00       	and    $0x200,%eax
  8036ee:	85 c0                	test   %eax,%eax
  8036f0:	74 30                	je     803722 <PAL_BattleUIUpdate+0x23b>
  8036f2:	c7 c0 20 32 86 00    	mov    $0x863220,%eax
  8036f8:	8b 80 00 07 00 00    	mov    0x700(%eax),%eax
  8036fe:	85 c0                	test   %eax,%eax
  803700:	0f 94 c0             	sete   %al
  803703:	0f b6 d0             	movzbl %al,%edx
  803706:	c7 c0 20 32 86 00    	mov    $0x863220,%eax
  80370c:	89 90 00 07 00 00    	mov    %edx,0x700(%eax)
  803712:	c7 c0 20 32 86 00    	mov    $0x863220,%eax
  803718:	c7 80 e8 04 00 00 00 	movl   $0x0,0x4e8(%eax)
  80371f:	00 00 00 
  803722:	c7 45 e4 00 00 00 00 	movl   $0x0,-0x1c(%ebp)
  803729:	e9 66 01 00 00       	jmp    803894 <PAL_BattleUIUpdate+0x3ad>
  80372e:	c7 c0 cc 31 86 00    	mov    $0x8631cc,%eax
  803734:	8b 08                	mov    (%eax),%ecx
  803736:	8b 55 e4             	mov    -0x1c(%ebp),%edx
  803739:	89 d0                	mov    %edx,%eax
  80373b:	c1 e0 02             	shl    $0x2,%eax
  80373e:	01 d0                	add    %edx,%eax
  803740:	01 c0                	add    %eax,%eax
  803742:	01 c8                	add    %ecx,%eax
  803744:	05 f8 43 00 00       	add    $0x43f8,%eax
  803749:	0f b7 00             	movzwl (%eax),%eax
  80374c:	66 89 45 d6          	mov    %ax,-0x2a(%ebp)
  803750:	c7 c2 20 32 86 00    	mov    $0x863220,%edx
  803756:	8b 45 e4             	mov    -0x1c(%ebp),%eax
  803759:	6b c0 3c             	imul   $0x3c,%eax,%eax
  80375c:	01 d0                	add    %edx,%eax
  80375e:	83 c0 04             	add    $0x4,%eax
  803761:	d9 00                	flds   (%eax)
  803763:	d9 7d 96             	fnstcw -0x6a(%ebp)
  803766:	0f b7 45 96          	movzwl -0x6a(%ebp),%eax
  80376a:	b4 0c                	mov    $0xc,%ah
  80376c:	66 89 45 94          	mov    %ax,-0x6c(%ebp)
  803770:	d9 6d 94             	fldcw  -0x6c(%ebp)
  803773:	db 5d 90             	fistpl -0x70(%ebp)
  803776:	d9 6d 96             	fldcw  -0x6a(%ebp)
  803779:	8b 45 90             	mov    -0x70(%ebp),%eax
  80377c:	66 89 45 d4          	mov    %ax,-0x2c(%ebp)
  803780:	c7 45 e0 1b 00 00 00 	movl   $0x1b,-0x20(%ebp)
  803787:	c7 c0 cc 31 86 00    	mov    $0x8631cc,%eax
  80378d:	8b 08                	mov    (%eax),%ecx
  80378f:	0f b7 55 d6          	movzwl -0x2a(%ebp),%edx
  803793:	89 d0                	mov    %edx,%eax
  803795:	c1 e0 03             	shl    $0x3,%eax
  803798:	01 d0                	add    %edx,%eax
  80379a:	01 c0                	add    %eax,%eax
  80379c:	01 c8                	add    %ecx,%eax
  80379e:	05 8e 43 00 00       	add    $0x438e,%eax
  8037a3:	0f b7 00             	movzwl (%eax),%eax
  8037a6:	66 85 c0             	test   %ax,%ax
  8037a9:	74 09                	je     8037b4 <PAL_BattleUIUpdate+0x2cd>
  8037ab:	c7 45 e0 2a 00 00 00 	movl   $0x2a,-0x20(%ebp)
  8037b2:	eb 2b                	jmp    8037df <PAL_BattleUIUpdate+0x2f8>
  8037b4:	c7 c0 cc 31 86 00    	mov    $0x8631cc,%eax
  8037ba:	8b 08                	mov    (%eax),%ecx
  8037bc:	0f b7 55 d6          	movzwl -0x2a(%ebp),%edx
  8037c0:	89 d0                	mov    %edx,%eax
  8037c2:	c1 e0 03             	shl    $0x3,%eax
  8037c5:	01 d0                	add    %edx,%eax
  8037c7:	01 c0                	add    %eax,%eax
  8037c9:	01 c8                	add    %ecx,%eax
  8037cb:	05 82 43 00 00       	add    $0x4382,%eax
  8037d0:	0f b7 00             	movzwl (%eax),%eax
  8037d3:	66 85 c0             	test   %ax,%ax
  8037d6:	74 07                	je     8037df <PAL_BattleUIUpdate+0x2f8>
  8037d8:	c7 45 e0 5b 00 00 00 	movl   $0x5b,-0x20(%ebp)
  8037df:	c7 c0 cc 31 86 00    	mov    $0x8631cc,%eax
  8037e5:	8b 08                	mov    (%eax),%ecx
  8037e7:	0f b7 55 d6          	movzwl -0x2a(%ebp),%edx
  8037eb:	89 d0                	mov    %edx,%eax
  8037ed:	c1 e0 03             	shl    $0x3,%eax
  8037f0:	01 d0                	add    %edx,%eax
  8037f2:	01 c0                	add    %eax,%eax
  8037f4:	01 c8                	add    %ecx,%eax
  8037f6:	05 84 43 00 00       	add    $0x4384,%eax
  8037fb:	0f b7 00             	movzwl (%eax),%eax
  8037fe:	66 85 c0             	test   %ax,%ax
  803801:	75 48                	jne    80384b <PAL_BattleUIUpdate+0x364>
  803803:	c7 c0 cc 31 86 00    	mov    $0x8631cc,%eax
  803809:	8b 08                	mov    (%eax),%ecx
  80380b:	0f b7 55 d6          	movzwl -0x2a(%ebp),%edx
  80380f:	89 d0                	mov    %edx,%eax
  803811:	c1 e0 03             	shl    $0x3,%eax
  803814:	01 d0                	add    %edx,%eax
  803816:	01 c0                	add    %eax,%eax
  803818:	01 c8                	add    %ecx,%eax
  80381a:	05 80 43 00 00       	add    $0x4380,%eax
  80381f:	0f b7 00             	movzwl (%eax),%eax
  803822:	66 85 c0             	test   %ax,%ax
  803825:	75 24                	jne    80384b <PAL_BattleUIUpdate+0x364>
  803827:	c7 c0 cc 31 86 00    	mov    $0x8631cc,%eax
  80382d:	8b 08                	mov    (%eax),%ecx
  80382f:	0f b7 55 d6          	movzwl -0x2a(%ebp),%edx
  803833:	89 d0                	mov    %edx,%eax
  803835:	c1 e0 03             	shl    $0x3,%eax
  803838:	01 d0                	add    %edx,%eax
  80383a:	01 c0                	add    %eax,%eax
  80383c:	01 c8                	add    %ecx,%eax
  80383e:	05 88 43 00 00       	add    $0x4388,%eax
  803843:	0f b7 00             	movzwl (%eax),%eax
  803846:	66 85 c0             	test   %ax,%ax
  803849:	74 06                	je     803851 <PAL_BattleUIUpdate+0x36a>
  80384b:	66 c7 45 d4 00 00    	movw   $0x0,-0x2c(%ebp)
  803851:	8b 45 e0             	mov    -0x20(%ebp),%eax
  803854:	0f b6 f8             	movzbl %al,%edi
  803857:	0f b7 75 d4          	movzwl -0x2c(%ebp),%esi
  80385b:	0f b7 4d d6          	movzwl -0x2a(%ebp),%ecx
  80385f:	8b 45 e4             	mov    -0x1c(%ebp),%eax
  803862:	89 c2                	mov    %eax,%edx
  803864:	89 d0                	mov    %edx,%eax
  803866:	c1 e0 03             	shl    $0x3,%eax
  803869:	01 d0                	add    %edx,%eax
  80386b:	01 c0                	add    %eax,%eax
  80386d:	01 d0                	add    %edx,%eax
  80386f:	c1 e0 02             	shl    $0x2,%eax
  803872:	01 d0                	add    %edx,%eax
  803874:	83 c0 5b             	add    $0x5b,%eax
  803877:	0f b7 c0             	movzwl %ax,%eax
  80387a:	0d 00 00 a5 00       	or     $0xa50000,%eax
  80387f:	83 ec 0c             	sub    $0xc,%esp
  803882:	6a 00                	push   $0x0
  803884:	57                   	push   %edi
  803885:	56                   	push   %esi
  803886:	51                   	push   %ecx
  803887:	50                   	push   %eax
  803888:	e8 1e ea ff ff       	call   8022ab <PAL_PlayerInfoBox>
  80388d:	83 c4 20             	add    $0x20,%esp
  803890:	83 45 e4 01          	addl   $0x1,-0x1c(%ebp)
  803894:	c7 c0 cc 31 86 00    	mov    $0x8631cc,%eax
  80389a:	8b 00                	mov    (%eax),%eax
  80389c:	0f b7 80 f6 43 00 00 	movzwl 0x43f6(%eax),%eax
  8038a3:	0f b7 c0             	movzwl %ax,%eax
  8038a6:	3b 45 e4             	cmp    -0x1c(%ebp),%eax
  8038a9:	0f 8d 7f fe ff ff    	jge    80372e <PAL_BattleUIUpdate+0x247>
  8038af:	c7 c0 38 3a 86 00    	mov    $0x863a38,%eax
  8038b5:	8b 40 08             	mov    0x8(%eax),%eax
  8038b8:	25 00 40 00 00       	and    $0x4000,%eax
  8038bd:	85 c0                	test   %eax,%eax
  8038bf:	74 0a                	je     8038cb <PAL_BattleUIUpdate+0x3e4>
  8038c1:	e8 d3 47 00 00       	call   808099 <PAL_PlayerStatus>
  8038c6:	e9 3a 1a 00 00       	jmp    805305 <.L127+0x1cb>
  8038cb:	c7 c0 20 32 86 00    	mov    $0x863220,%eax
  8038d1:	8b 80 e4 04 00 00    	mov    0x4e4(%eax),%eax
  8038d7:	85 c0                	test   %eax,%eax
  8038d9:	0f 84 35 03 00 00    	je     803c14 <PAL_BattleUIUpdate+0x72d>
  8038df:	c7 c0 cc 31 86 00    	mov    $0x8631cc,%eax
  8038e5:	8b 08                	mov    (%eax),%ecx
  8038e7:	c7 c0 20 32 86 00    	mov    $0x863220,%eax
  8038ed:	0f b7 80 f2 06 00 00 	movzwl 0x6f2(%eax),%eax
  8038f4:	0f b7 d0             	movzwl %ax,%edx
  8038f7:	89 d0                	mov    %edx,%eax
  8038f9:	c1 e0 02             	shl    $0x2,%eax
  8038fc:	01 d0                	add    %edx,%eax
  8038fe:	01 c0                	add    %eax,%eax
  803900:	01 c8                	add    %ecx,%eax
  803902:	05 f8 43 00 00       	add    $0x43f8,%eax
  803907:	0f b7 00             	movzwl (%eax),%eax
  80390a:	66 89 45 d6          	mov    %ax,-0x2a(%ebp)
  80390e:	c7 c0 cc 31 86 00    	mov    $0x8631cc,%eax
  803914:	8b 00                	mov    (%eax),%eax
  803916:	0f b7 55 d6          	movzwl -0x2a(%ebp),%edx
  80391a:	81 c2 10 13 00 00    	add    $0x1310,%edx
  803920:	0f b7 44 50 14       	movzwl 0x14(%eax,%edx,2),%eax
  803925:	66 85 c0             	test   %ax,%ax
  803928:	0f 85 ac 00 00 00    	jne    8039da <PAL_BattleUIUpdate+0x4f3>
  80392e:	c7 c0 cc 31 86 00    	mov    $0x8631cc,%eax
  803934:	8b 08                	mov    (%eax),%ecx
  803936:	0f b7 55 d6          	movzwl -0x2a(%ebp),%edx
  80393a:	89 d0                	mov    %edx,%eax
  80393c:	c1 e0 03             	shl    $0x3,%eax
  80393f:	01 d0                	add    %edx,%eax
  803941:	01 c0                	add    %eax,%eax
  803943:	01 c8                	add    %ecx,%eax
  803945:	05 88 43 00 00       	add    $0x4388,%eax
  80394a:	0f b7 00             	movzwl (%eax),%eax
  80394d:	66 85 c0             	test   %ax,%ax
  803950:	0f 84 84 00 00 00    	je     8039da <PAL_BattleUIUpdate+0x4f3>
  803956:	c7 c0 20 32 86 00    	mov    $0x863220,%eax
  80395c:	66 c7 80 fa 06 00 00 	movw   $0x2,0x6fa(%eax)
  803963:	02 00 
  803965:	c7 c0 cc 31 86 00    	mov    $0x8631cc,%eax
  80396b:	8b 08                	mov    (%eax),%ecx
  80396d:	c7 c0 20 32 86 00    	mov    $0x863220,%eax
  803973:	0f b7 80 f2 06 00 00 	movzwl 0x6f2(%eax),%eax
  80397a:	0f b7 d0             	movzwl %ax,%edx
  80397d:	89 d0                	mov    %edx,%eax
  80397f:	c1 e0 02             	shl    $0x2,%eax
  803982:	01 d0                	add    %edx,%eax
  803984:	01 c0                	add    %eax,%eax
  803986:	01 c8                	add    %ecx,%eax
  803988:	05 f8 43 00 00       	add    $0x43f8,%eax
  80398d:	0f b7 00             	movzwl (%eax),%eax
  803990:	0f b7 c0             	movzwl %ax,%eax
  803993:	83 ec 0c             	sub    $0xc,%esp
  803996:	50                   	push   %eax
  803997:	e8 0a a7 02 00       	call   82e0a6 <PAL_PlayerCanAttackAll>
  80399c:	83 c4 10             	add    $0x10,%esp
  80399f:	85 c0                	test   %eax,%eax
  8039a1:	74 11                	je     8039b4 <PAL_BattleUIUpdate+0x4cd>
  8039a3:	c7 c0 20 32 86 00    	mov    $0x863220,%eax
  8039a9:	66 c7 80 f6 06 00 00 	movw   $0xffff,0x6f6(%eax)
  8039b0:	ff ff 
  8039b2:	eb 14                	jmp    8039c8 <PAL_BattleUIUpdate+0x4e1>
  8039b4:	e8 a7 59 01 00       	call   819360 <PAL_BattleSelectAutoTarget>
  8039b9:	89 c2                	mov    %eax,%edx
  8039bb:	c7 c0 20 32 86 00    	mov    $0x863220,%eax
  8039c1:	66 89 90 f6 06 00 00 	mov    %dx,0x6f6(%eax)
  8039c8:	83 ec 0c             	sub    $0xc,%esp
  8039cb:	6a 00                	push   $0x0
  8039cd:	e8 f5 83 01 00       	call   81bdc7 <PAL_BattleCommitAction>
  8039d2:	83 c4 10             	add    $0x10,%esp
  8039d5:	e9 2b 19 00 00       	jmp    805305 <.L127+0x1cb>
  8039da:	c7 c0 cc 31 86 00    	mov    $0x8631cc,%eax
  8039e0:	8b 00                	mov    (%eax),%eax
  8039e2:	0f b7 55 d6          	movzwl -0x2a(%ebp),%edx
  8039e6:	81 c2 10 13 00 00    	add    $0x1310,%edx
  8039ec:	0f b7 44 50 14       	movzwl 0x14(%eax,%edx,2),%eax
  8039f1:	66 85 c0             	test   %ax,%ax
  8039f4:	74 48                	je     803a3e <PAL_BattleUIUpdate+0x557>
  8039f6:	c7 c0 cc 31 86 00    	mov    $0x8631cc,%eax
  8039fc:	8b 08                	mov    (%eax),%ecx
  8039fe:	0f b7 55 d6          	movzwl -0x2a(%ebp),%edx
  803a02:	89 d0                	mov    %edx,%eax
  803a04:	c1 e0 03             	shl    $0x3,%eax
  803a07:	01 d0                	add    %edx,%eax
  803a09:	01 c0                	add    %eax,%eax
  803a0b:	01 c8                	add    %ecx,%eax
  803a0d:	05 84 43 00 00       	add    $0x4384,%eax
  803a12:	0f b7 00             	movzwl (%eax),%eax
  803a15:	66 85 c0             	test   %ax,%ax
  803a18:	75 24                	jne    803a3e <PAL_BattleUIUpdate+0x557>
  803a1a:	c7 c0 cc 31 86 00    	mov    $0x8631cc,%eax
  803a20:	8b 08                	mov    (%eax),%ecx
  803a22:	0f b7 55 d6          	movzwl -0x2a(%ebp),%edx
  803a26:	89 d0                	mov    %edx,%eax
  803a28:	c1 e0 03             	shl    $0x3,%eax
  803a2b:	01 d0                	add    %edx,%eax
  803a2d:	01 c0                	add    %eax,%eax
  803a2f:	01 c8                	add    %ecx,%eax
  803a31:	05 84 43 00 00       	add    $0x4384,%eax
  803a36:	0f b7 00             	movzwl (%eax),%eax
  803a39:	66 85 c0             	test   %ax,%ax
  803a3c:	74 21                	je     803a5f <PAL_BattleUIUpdate+0x578>
  803a3e:	c7 c0 20 32 86 00    	mov    $0x863220,%eax
  803a44:	66 c7 80 fa 06 00 00 	movw   $0x0,0x6fa(%eax)
  803a4b:	00 00 
  803a4d:	83 ec 0c             	sub    $0xc,%esp
  803a50:	6a 00                	push   $0x0
  803a52:	e8 70 83 01 00       	call   81bdc7 <PAL_BattleCommitAction>
  803a57:	83 c4 10             	add    $0x10,%esp
  803a5a:	e9 a6 18 00 00       	jmp    805305 <.L127+0x1cb>
  803a5f:	c7 c0 cc 31 86 00    	mov    $0x8631cc,%eax
  803a65:	8b 08                	mov    (%eax),%ecx
  803a67:	0f b7 55 d6          	movzwl -0x2a(%ebp),%edx
  803a6b:	89 d0                	mov    %edx,%eax
  803a6d:	c1 e0 03             	shl    $0x3,%eax
  803a70:	01 d0                	add    %edx,%eax
  803a72:	01 c0                	add    %eax,%eax
  803a74:	01 c8                	add    %ecx,%eax
  803a76:	05 80 43 00 00       	add    $0x4380,%eax
  803a7b:	0f b7 00             	movzwl (%eax),%eax
  803a7e:	66 85 c0             	test   %ax,%ax
  803a81:	74 21                	je     803aa4 <PAL_BattleUIUpdate+0x5bd>
  803a83:	c7 c0 20 32 86 00    	mov    $0x863220,%eax
  803a89:	66 c7 80 fa 06 00 00 	movw   $0x8,0x6fa(%eax)
  803a90:	08 00 
  803a92:	83 ec 0c             	sub    $0xc,%esp
  803a95:	6a 00                	push   $0x0
  803a97:	e8 2b 83 01 00       	call   81bdc7 <PAL_BattleCommitAction>
  803a9c:	83 c4 10             	add    $0x10,%esp
  803a9f:	e9 61 18 00 00       	jmp    805305 <.L127+0x1cb>
  803aa4:	c7 c0 20 32 86 00    	mov    $0x863220,%eax
  803aaa:	8b 80 00 07 00 00    	mov    0x700(%eax),%eax
  803ab0:	85 c0                	test   %eax,%eax
  803ab2:	0f 84 84 00 00 00    	je     803b3c <PAL_BattleUIUpdate+0x655>
  803ab8:	c7 c0 20 32 86 00    	mov    $0x863220,%eax
  803abe:	66 c7 80 fa 06 00 00 	movw   $0x2,0x6fa(%eax)
  803ac5:	02 00 
  803ac7:	c7 c0 cc 31 86 00    	mov    $0x8631cc,%eax
  803acd:	8b 08                	mov    (%eax),%ecx
  803acf:	c7 c0 20 32 86 00    	mov    $0x863220,%eax
  803ad5:	0f b7 80 f2 06 00 00 	movzwl 0x6f2(%eax),%eax
  803adc:	0f b7 d0             	movzwl %ax,%edx
  803adf:	89 d0                	mov    %edx,%eax
  803ae1:	c1 e0 02             	shl    $0x2,%eax
  803ae4:	01 d0                	add    %edx,%eax
  803ae6:	01 c0                	add    %eax,%eax
  803ae8:	01 c8                	add    %ecx,%eax
  803aea:	05 f8 43 00 00       	add    $0x43f8,%eax
  803aef:	0f b7 00             	movzwl (%eax),%eax
  803af2:	0f b7 c0             	movzwl %ax,%eax
  803af5:	83 ec 0c             	sub    $0xc,%esp
  803af8:	50                   	push   %eax
  803af9:	e8 a8 a5 02 00       	call   82e0a6 <PAL_PlayerCanAttackAll>
  803afe:	83 c4 10             	add    $0x10,%esp
  803b01:	85 c0                	test   %eax,%eax
  803b03:	74 11                	je     803b16 <PAL_BattleUIUpdate+0x62f>
  803b05:	c7 c0 20 32 86 00    	mov    $0x863220,%eax
  803b0b:	66 c7 80 f6 06 00 00 	movw   $0xffff,0x6f6(%eax)
  803b12:	ff ff 
  803b14:	eb 14                	jmp    803b2a <PAL_BattleUIUpdate+0x643>
  803b16:	e8 45 58 01 00       	call   819360 <PAL_BattleSelectAutoTarget>
  803b1b:	89 c2                	mov    %eax,%edx
  803b1d:	c7 c0 20 32 86 00    	mov    $0x863220,%eax
  803b23:	66 89 90 f6 06 00 00 	mov    %dx,0x6f6(%eax)
  803b2a:	83 ec 0c             	sub    $0xc,%esp
  803b2d:	6a 00                	push   $0x0
  803b2f:	e8 93 82 01 00       	call   81bdc7 <PAL_BattleCommitAction>
  803b34:	83 c4 10             	add    $0x10,%esp
  803b37:	e9 c9 17 00 00       	jmp    805305 <.L127+0x1cb>
  803b3c:	c7 45 e4 44 00 00 00 	movl   $0x44,-0x1c(%ebp)
  803b43:	8b 83 88 18 01 00    	mov    0x11888(%ebx),%eax
  803b49:	83 e0 01             	and    $0x1,%eax
  803b4c:	85 c0                	test   %eax,%eax
  803b4e:	74 07                	je     803b57 <PAL_BattleUIUpdate+0x670>
  803b50:	c7 45 e4 45 00 00 00 	movl   $0x45,-0x1c(%ebp)
  803b57:	c7 c0 cc 31 86 00    	mov    $0x8631cc,%eax
  803b5d:	8b 00                	mov    (%eax),%eax
  803b5f:	0f b7 80 f6 43 00 00 	movzwl 0x43f6(%eax),%eax
  803b66:	0f b7 d0             	movzwl %ax,%edx
  803b69:	c7 c0 20 32 86 00    	mov    $0x863220,%eax
  803b6f:	0f b7 80 f2 06 00 00 	movzwl 0x6f2(%eax),%eax
  803b76:	0f b7 f0             	movzwl %ax,%esi
  803b79:	c7 c1 00 bc 84 00    	mov    $0x84bc00,%ecx
  803b7f:	89 d0                	mov    %edx,%eax
  803b81:	01 c0                	add    %eax,%eax
  803b83:	01 d0                	add    %edx,%eax
  803b85:	01 f0                	add    %esi,%eax
  803b87:	0f b7 04 81          	movzwl (%ecx,%eax,4),%eax
  803b8b:	0f b7 c0             	movzwl %ax,%eax
  803b8e:	83 e8 08             	sub    $0x8,%eax
  803b91:	89 45 dc             	mov    %eax,-0x24(%ebp)
  803b94:	c7 c0 cc 31 86 00    	mov    $0x8631cc,%eax
  803b9a:	8b 00                	mov    (%eax),%eax
  803b9c:	0f b7 80 f6 43 00 00 	movzwl 0x43f6(%eax),%eax
  803ba3:	0f b7 d0             	movzwl %ax,%edx
  803ba6:	c7 c0 20 32 86 00    	mov    $0x863220,%eax
  803bac:	0f b7 80 f2 06 00 00 	movzwl 0x6f2(%eax),%eax
  803bb3:	0f b7 f0             	movzwl %ax,%esi
  803bb6:	c7 c1 00 bc 84 00    	mov    $0x84bc00,%ecx
  803bbc:	89 d0                	mov    %edx,%eax
  803bbe:	01 c0                	add    %eax,%eax
  803bc0:	01 d0                	add    %edx,%eax
  803bc2:	01 f0                	add    %esi,%eax
  803bc4:	0f b7 44 81 02       	movzwl 0x2(%ecx,%eax,4),%eax
  803bc9:	0f b7 c0             	movzwl %ax,%eax
  803bcc:	83 e8 4a             	sub    $0x4a,%eax
  803bcf:	89 45 d8             	mov    %eax,-0x28(%ebp)
  803bd2:	8b 45 d8             	mov    -0x28(%ebp),%eax
  803bd5:	0f b7 c0             	movzwl %ax,%eax
  803bd8:	c1 e0 10             	shl    $0x10,%eax
  803bdb:	89 c2                	mov    %eax,%edx
  803bdd:	8b 45 dc             	mov    -0x24(%ebp),%eax
  803be0:	0f b7 c0             	movzwl %ax,%eax
  803be3:	89 d7                	mov    %edx,%edi
  803be5:	09 c7                	or     %eax,%edi
  803be7:	c7 c0 60 d0 85 00    	mov    $0x85d060,%eax
  803bed:	8b 30                	mov    (%eax),%esi
  803bef:	c7 c0 28 cb 85 00    	mov    $0x85cb28,%eax
  803bf5:	8b 00                	mov    (%eax),%eax
  803bf7:	83 ec 08             	sub    $0x8,%esp
  803bfa:	ff 75 e4             	pushl  -0x1c(%ebp)
  803bfd:	50                   	push   %eax
  803bfe:	e8 f1 bd 02 00       	call   82f9f4 <PAL_SpriteGetFrame>
  803c03:	83 c4 10             	add    $0x10,%esp
  803c06:	83 ec 04             	sub    $0x4,%esp
  803c09:	57                   	push   %edi
  803c0a:	56                   	push   %esi
  803c0b:	50                   	push   %eax
  803c0c:	e8 69 b5 02 00       	call   82f17a <PAL_RLEBlitToSurface>
  803c11:	83 c4 10             	add    $0x10,%esp
  803c14:	c7 c0 20 32 86 00    	mov    $0x863220,%eax
  803c1a:	8b 80 e4 04 00 00    	mov    0x4e4(%eax),%eax
  803c20:	83 f8 05             	cmp    $0x5,%eax
  803c23:	0f 87 dc 16 00 00    	ja     805305 <.L127+0x1cb>
  803c29:	c1 e0 02             	shl    $0x2,%eax
  803c2c:	8b 84 18 3c 68 ff ff 	mov    -0x97c4(%eax,%ebx,1),%eax
  803c33:	01 d8                	add    %ebx,%eax
  803c35:	ff e0                	jmp    *%eax

00803c37 <.L121>:
  803c37:	c7 c0 20 32 86 00    	mov    $0x863220,%eax
  803c3d:	8b 80 d8 04 00 00    	mov    0x4d8(%eax),%eax
  803c43:	85 c0                	test   %eax,%eax
  803c45:	0f 85 aa 16 00 00    	jne    8052f5 <.L127+0x1bb>
  803c4b:	e8 a4 74 01 00       	call   81b0f4 <PAL_BattlePlayerCheckReady>
  803c50:	c7 45 e4 00 00 00 00 	movl   $0x0,-0x1c(%ebp)
  803c57:	eb 34                	jmp    803c8d <.L121+0x56>
  803c59:	c7 c2 20 32 86 00    	mov    $0x863220,%edx
  803c5f:	8b 45 e4             	mov    -0x1c(%ebp),%eax
  803c62:	6b c0 3c             	imul   $0x3c,%eax,%eax
  803c65:	01 d0                	add    %edx,%eax
  803c67:	83 c0 20             	add    $0x20,%eax
  803c6a:	8b 00                	mov    (%eax),%eax
  803c6c:	83 f8 01             	cmp    $0x1,%eax
  803c6f:	75 18                	jne    803c89 <.L121+0x52>
  803c71:	8b 45 e4             	mov    -0x1c(%ebp),%eax
  803c74:	0f b7 c0             	movzwl %ax,%eax
  803c77:	83 ec 0c             	sub    $0xc,%esp
  803c7a:	50                   	push   %eax
  803c7b:	e8 02 f4 ff ff       	call   803082 <PAL_BattleUIPlayerReady>
  803c80:	83 c4 10             	add    $0x10,%esp
  803c83:	90                   	nop
  803c84:	e9 6c 16 00 00       	jmp    8052f5 <.L127+0x1bb>
  803c89:	83 45 e4 01          	addl   $0x1,-0x1c(%ebp)
  803c8d:	c7 c0 cc 31 86 00    	mov    $0x8631cc,%eax
  803c93:	8b 00                	mov    (%eax),%eax
  803c95:	0f b7 80 f6 43 00 00 	movzwl 0x43f6(%eax),%eax
  803c9c:	0f b7 c0             	movzwl %ax,%eax
  803c9f:	3b 45 e4             	cmp    -0x1c(%ebp),%eax
